ccopy_reg
_reconstructor
p1
(cpsychopy.data
ExperimentHandler
p2
c__builtin__
object
p3
NtRp4
(dp5
S'originPath'
p6
S'C:\\Users\\user\\Desktop\\Thuong\\StroopTaskForfNIRS_modified\\fNIRS_short\\StroopShort-Experienced.psyexp'
p7
sS'dataFileName'
p8
VC:\u005cUsers\u005cuser\u005cDesktop\u005cThuong\u005cStroopTaskForfNIRS_modified\u005cfNIRS_short\u005cdata/ChiK13_stroop short_2016_Sep_07_1432
p9
sS'runtimeInfo'
p10
NsS'name'
p11
S'stroop short'
p12
sS'dataNames'
p13
(lp14
S'key_resp_3.keys'
p15
aS'key_resp_3.rt'
p16
aS'key_resp_2.keys'
p17
aS'key_resp_2.rt'
p18
aS'key_resp_4.keys'
p19
aS'key_resp_4.rt'
p20
aS'key_resp_8.keys'
p21
aS'key_resp_7.keys'
p22
aS'key_resp_7.corr'
p23
aS'key_resp_7.rt'
p24
aS'key_resp_9.keys'
p25
aS'key_resp_9.rt'
p26
asS'autoLog'
p27
I01
sS'extraInfo'
p28
(dp29
S'date'
p30
V2016_Sep_07_1432
p31
sS'frameRate'
p32
cnumpy.core.multiarray
scalar
p33
(cnumpy
dtype
p34
(S'f8'
I0
I1
tRp35
(I3
S'<'
NNNI-1
I-1
I0
tbS'7O\xdc4\x0c\x01N@'
tRp36
sS'expName'
p37
g12
sS'session'
p38
V003
p39
sS'participant'
p40
VChiK13
p41
ssS'loopsUnfinished'
p42
(lp43
sS'saveWideText'
p44
I01
sS'thisEntry'
p45
(dp46
sS'version'
p47
S''
sS'_paramNamesSoFar'
p48
(lp49
Vcolor
p50
aVcongruent
p51
aVword
p52
aVcorrans
p53
asS'entries'
p54
(lp55
(dp56
g38
g39
sg37
g12
sg40
g41
sg30
g31
sg15
S'space'
p57
sg32
g36
sg16
F27.809281439309416
sa(dp58
g38
g39
sg18
F1.7498031825816724
sg37
g12
sg40
g41
sg30
g31
sg32
g36
sg17
S'space'
p59
sa(dp60
g38
g39
sg30
g31
sg37
g12
sg20
F1.6331204151829297
sg19
S'space'
p61
sg40
g41
sg32
g36
sa(dp62
g38
g39
sg37
g12
sg21
Nsg30
g31
sg40
g41
sg32
g36
sa(dp63
g38
g39
sg37
g12
sS'inverse1.thisTrialN'
p64
I0
sg50
VRED
p65
sg24
F0.99991425448024529
sg40
g41
sg32
g36
sg53
Vz
sS'inverse1.thisIndex'
p66
g33
(g34
(S'i4'
I0
I1
tRp67
(I3
S'<'
NNNI-1
I-1
I0
tbS'\x00\x00\x00\x00'
tRp68
sg51
I0
sS'inverse1.thisN'
p69
I0
sg22
S'z'
sg52
VYELLOW
p70
sg30
g31
sS'inverse1.thisRepN'
p71
I0
sg23
I1
sa(dp72
g38
g39
sg37
g12
sS'inverse1.thisTrialN'
p73
I1
sg50
g65
sg24
F0.43328204051795183
sg40
g41
sg32
g36
sg53
Vz
sS'inverse1.thisIndex'
p74
g33
(g67
S'\x01\x00\x00\x00'
tRp75
sg51
I1
sS'inverse1.thisN'
p76
I1
sg22
S'z'
sg52
g65
sg30
g31
sS'inverse1.thisRepN'
p77
I0
sg23
I1
sa(dp78
g38
g39
sg37
g12
sS'inverse1.thisTrialN'
p79
I2
sg50
VBLUE
p80
sg24
F0.70003270910092397
sg40
g41
sg32
g36
sg53
Vz
sS'inverse1.thisIndex'
p81
g33
(g67
S'\x02\x00\x00\x00'
tRp82
sg51
I0
sS'inverse1.thisN'
p83
I2
sg22
S'n'
sg52
VGREEN
p84
sg30
g31
sS'inverse1.thisRepN'
p85
I0
sg23
I0
sa(dp86
g38
g39
sg37
g12
sS'inverse1.thisTrialN'
p87
I3
sg50
g70
sg24
F0.74987634767967393
sg40
g41
sg32
g36
sg53
Vz
sS'inverse1.thisIndex'
p88
g33
(g67
S'\x03\x00\x00\x00'
tRp89
sg51
I0
sS'inverse1.thisN'
p90
I3
sg22
S'x'
sg52
g65
sg30
g31
sS'inverse1.thisRepN'
p91
I0
sg23
I0
sa(dp92
g38
g39
sg37
g12
sS'inverse1.thisTrialN'
p93
I4
sg50
g84
sg24
F0.80015367980740848
sg40
g41
sg32
g36
sg53
Vn
sS'inverse1.thisIndex'
p94
g33
(g67
S'\x04\x00\x00\x00'
tRp95
sg51
I0
sS'inverse1.thisN'
p96
I4
sg22
S'n'
sg52
g65
sg30
g31
sS'inverse1.thisRepN'
p97
I0
sg23
I1
sa(dp98
g38
g39
sg37
g12
sS'inverse1.thisTrialN'
p99
I5
sg50
g65
sg24
F0.71649651091865962
sg40
g41
sg32
g36
sg53
Vz
sS'inverse1.thisIndex'
p100
g33
(g67
S'\x05\x00\x00\x00'
tRp101
sg51
I0
sS'inverse1.thisN'
p102
I5
sg22
S'z'
sg52
g80
sg30
g31
sS'inverse1.thisRepN'
p103
I0
sg23
I1
sa(dp104
g38
g39
sg37
g12
sS'inverse1.thisTrialN'
p105
I6
sg50
g84
sg24
F1.2498435723646253
sg40
g41
sg32
g36
sg53
Vn
sS'inverse1.thisIndex'
p106
g33
(g67
S'\x06\x00\x00\x00'
tRp107
sg51
I0
sS'inverse1.thisN'
p108
I6
sg22
S'n'
sg52
g70
sg30
g31
sS'inverse1.thisRepN'
p109
I0
sg23
I1
sa(dp110
g38
g39
sg37
g12
sS'inverse1.thisTrialN'
p111
I7
sg50
g70
sg24
F0.79984512836381327
sg40
g41
sg32
g36
sg53
Vx
sS'inverse1.thisIndex'
p112
g33
(g67
S'\x07\x00\x00\x00'
tRp113
sg51
I0
sS'inverse1.thisN'
p114
I7
sg22
S'x'
sg52
g80
sg30
g31
sS'inverse1.thisRepN'
p115
I0
sg23
I1
sa(dp116
g38
g39
sg37
g12
sS'inverse1.thisTrialN'
p117
I8
sg50
g84
sg24
F1.1165960286889458
sg40
g41
sg32
g36
sg53
Vn
sS'inverse1.thisIndex'
p118
g33
(g67
S'\x08\x00\x00\x00'
tRp119
sg51
I0
sS'inverse1.thisN'
p120
I8
sg22
S'm'
sg52
g80
sg30
g31
sS'inverse1.thisRepN'
p121
I0
sg23
I0
sa(dp122
g38
g39
sg37
g12
sS'inverse1.thisTrialN'
p123
I9
sg50
g65
sg24
F0.76669703625157126
sg40
g41
sg32
g36
sg53
Vz
sS'inverse1.thisIndex'
p124
g33
(g67
S'\t\x00\x00\x00'
tRp125
sg51
I0
sS'inverse1.thisN'
p126
I9
sg22
S'z'
sg52
g84
sg30
g31
sS'inverse1.thisRepN'
p127
I0
sg23
I1
sa(dp128
g38
g39
sg37
g12
sS'inverse1.thisTrialN'
p129
I10
sg50
g70
sg24
F0.68344773793796776
sg40
g41
sg32
g36
sg53
Vx
sS'inverse1.thisIndex'
p130
g33
(g67
S'\n\x00\x00\x00'
tRp131
sg51
I0
sS'inverse1.thisN'
p132
I10
sg22
S'x'
sg52
g80
sg30
g31
sS'inverse1.thisRepN'
p133
I0
sg23
I1
sa(dp134
g38
g39
sg37
g12
sS'inverse1.thisTrialN'
p135
I11
sg50
g65
sg24
F0.8498728384001879
sg40
g41
sg32
g36
sg53
Vz
sS'inverse1.thisIndex'
p136
g33
(g67
S'\x0b\x00\x00\x00'
tRp137
sg51
I0
sS'inverse1.thisN'
p138
I11
sg22
S'z'
sg52
g65
sg30
g31
sS'inverse1.thisRepN'
p139
I0
sg23
I1
sa(dp140
g38
g39
sg37
g12
sS'inverse1.thisTrialN'
p141
I12
sg50
g80
sg24
F1.1166162235822412
sg40
g41
sg32
g36
sg53
Vm
sS'inverse1.thisIndex'
p142
g33
(g67
S'\x0c\x00\x00\x00'
tRp143
sg51
I1
sS'inverse1.thisN'
p144
I12
sg22
S'm'
sg52
g80
sg30
g31
sS'inverse1.thisRepN'
p145
I0
sg23
I1
sa(dp146
g38
g39
sg37
g12
sS'inverse1.thisTrialN'
p147
I13
sg50
g84
sg24
F0.91683412975908141
sg40
g41
sg32
g36
sg53
Vn
sS'inverse1.thisIndex'
p148
g33
(g67
S'\r\x00\x00\x00'
tRp149
sg51
I0
sS'inverse1.thisN'
p150
I13
sg22
S'n'
sg52
g65
sg30
g31
sS'inverse1.thisRepN'
p151
I0
sg23
I1
sa(dp152
g38
g39
sg37
g12
sS'inverse1.thisTrialN'
p153
I14
sg50
g80
sg24
F0.61675858100716141
sg40
g41
sg32
g36
sg53
Vm
sS'inverse1.thisIndex'
p154
g33
(g67
S'\x0e\x00\x00\x00'
tRp155
sg51
I0
sS'inverse1.thisN'
p156
I14
sg22
S'm'
sg52
g65
sg30
g31
sS'inverse1.thisRepN'
p157
I0
sg23
I1
sa(dp158
g38
g39
sg37
g12
sS'inverse1.thisTrialN'
p159
I15
sg50
g80
sg24
F0.59998589668248314
sg40
g41
sg32
g36
sg53
Vm
sS'inverse1.thisIndex'
p160
g33
(g67
S'\x0f\x00\x00\x00'
tRp161
sg51
I0
sS'inverse1.thisN'
p162
I15
sg22
S'm'
sg52
g84
sg30
g31
sS'inverse1.thisRepN'
p163
I0
sg23
I1
sa(dp164
g38
g39
sg37
g12
sS'inverse1.thisTrialN'
p165
I16
sg50
g70
sg24
F0.93322741499287076
sg40
g41
sg32
g36
sg53
Vx
sS'inverse1.thisIndex'
p166
g33
(g67
S'\x10\x00\x00\x00'
tRp167
sg51
I0
sS'inverse1.thisN'
p168
I16
sg22
S'x'
sg52
g84
sg30
g31
sS'inverse1.thisRepN'
p169
I0
sg23
I1
sa(dp170
g38
g39
sg37
g12
sS'inverse1.thisTrialN'
p171
I17
sg50
g65
sg24
F0.58339860807609512
sg40
g41
sg32
g36
sg53
Vz
sS'inverse1.thisIndex'
p172
g33
(g67
S'\x11\x00\x00\x00'
tRp173
sg51
I0
sS'inverse1.thisN'
p174
I17
sg22
S'z'
sg52
g70
sg30
g31
sS'inverse1.thisRepN'
p175
I0
sg23
I1
sa(dp176
g38
g39
sg37
g12
sS'inverse1.thisTrialN'
p177
I18
sg50
g65
sg24
F0.86652468444299302
sg40
g41
sg32
g36
sg53
Vz
sS'inverse1.thisIndex'
p178
g33
(g67
S'\x12\x00\x00\x00'
tRp179
sg51
I0
sS'inverse1.thisN'
p180
I18
sg22
S'z'
sg52
g80
sg30
g31
sS'inverse1.thisRepN'
p181
I0
sg23
I1
sa(dp182
g38
g39
sg37
g12
sS'inverse1.thisTrialN'
p183
I19
sg50
g84
sg24
F0.8333050825567625
sg40
g41
sg32
g36
sg53
Vm
sS'inverse1.thisIndex'
p184
g33
(g67
S'\x13\x00\x00\x00'
tRp185
sg51
I0
sS'inverse1.thisN'
p186
I19
sg22
S'n'
sg52
g65
sg30
g31
sS'inverse1.thisRepN'
p187
I0
sg23
I0
sa(dp188
g38
g39
sg37
g12
sS'inverse1.thisTrialN'
p189
I20
sg50
g80
sg24
F1.2329778591156355
sg40
g41
sg32
g36
sg53
Vm
sS'inverse1.thisIndex'
p190
g33
(g67
S'\x14\x00\x00\x00'
tRp191
sg51
I0
sS'inverse1.thisN'
p192
I20
sg22
S'm'
sg52
g84
sg30
g31
sS'inverse1.thisRepN'
p193
I0
sg23
I1
sa(dp194
g38
g39
sg37
g12
sS'inverse1.thisTrialN'
p195
I21
sg50
g65
sg24
F0.58338635871768929
sg40
g41
sg32
g36
sg53
Vz
sS'inverse1.thisIndex'
p196
g33
(g67
S'\x15\x00\x00\x00'
tRp197
sg51
I0
sS'inverse1.thisN'
p198
I21
sg22
S'z'
sg52
g70
sg30
g31
sS'inverse1.thisRepN'
p199
I0
sg23
I1
sa(dp200
g38
g39
sg37
g12
sS'inverse1.thisTrialN'
p201
I22
sg50
g84
sg24
F0.69992312699105241
sg40
g41
sg32
g36
sg53
Vn
sS'inverse1.thisIndex'
p202
g33
(g67
S'\x16\x00\x00\x00'
tRp203
sg51
I0
sS'inverse1.thisN'
p204
I22
sg22
S'n'
sg52
g80
sg30
g31
sS'inverse1.thisRepN'
p205
I0
sg23
I1
sa(dp206
g38
g39
sg37
g12
sS'inverse1.thisTrialN'
p207
I23
sg50
g70
sg24
F0.71666104961695964
sg40
g41
sg32
g36
sg53
Vx
sS'inverse1.thisIndex'
p208
g33
(g67
S'\x17\x00\x00\x00'
tRp209
sg51
I1
sS'inverse1.thisN'
p210
I23
sg22
S'x'
sg52
g70
sg30
g31
sS'inverse1.thisRepN'
p211
I0
sg23
I1
sa(dp212
g38
g39
sg37
g12
sS'inverse1.thisTrialN'
p213
I24
sg50
g65
sg24
F0.66656745788714034
sg40
g41
sg32
g36
sg53
Vz
sS'inverse1.thisIndex'
p214
g33
(g67
S'\x18\x00\x00\x00'
tRp215
sg51
I0
sS'inverse1.thisN'
p216
I24
sg22
S'z'
sg52
g80
sg30
g31
sS'inverse1.thisRepN'
p217
I0
sg23
I1
sa(dp218
g38
g39
sg37
g12
sS'inverse1.thisTrialN'
p219
I25
sg50
g84
sg24
F1.1165844414608728
sg40
g41
sg32
g36
sg53
Vn
sS'inverse1.thisIndex'
p220
g33
(g67
S'\x19\x00\x00\x00'
tRp221
sg51
I0
sS'inverse1.thisN'
p222
I25
sg22
S'n'
sg52
g65
sg30
g31
sS'inverse1.thisRepN'
p223
I0
sg23
I1
sa(dp224
g38
g39
sg37
g12
sS'inverse1.thisTrialN'
p225
I26
sg50
g80
sg24
F0.94984284402380581
sg40
g41
sg32
g36
sg53
Vm
sS'inverse1.thisIndex'
p226
g33
(g67
S'\x1a\x00\x00\x00'
tRp227
sg51
I0
sS'inverse1.thisN'
p228
I26
sg22
S'm'
sg52
g84
sg30
g31
sS'inverse1.thisRepN'
p229
I0
sg23
I1
sa(dp230
g38
g39
sg37
g12
sS'inverse1.thisTrialN'
p231
I27
sg50
g70
sg24
F0.93320490265614353
sg40
g41
sg32
g36
sg53
Vx
sS'inverse1.thisIndex'
p232
g33
(g67
S'\x1b\x00\x00\x00'
tRp233
sg51
I0
sS'inverse1.thisN'
p234
I27
sg22
S'x'
sg52
g84
sg30
g31
sS'inverse1.thisRepN'
p235
I0
sg23
I1
sa(dp236
g38
g39
sg37
g12
sS'inverse1.thisTrialN'
p237
I28
sg50
g84
sg24
F1.2664775409612048
sg40
g41
sg32
g36
sg53
Vn
sS'inverse1.thisIndex'
p238
g33
(g67
S'\x1c\x00\x00\x00'
tRp239
sg51
I0
sS'inverse1.thisN'
p240
I28
sg22
S'n'
sg52
g70
sg30
g31
sS'inverse1.thisRepN'
p241
I0
sg23
I1
sa(dp242
g38
g39
sg37
g12
sS'inverse1.thisTrialN'
p243
I29
sg50
g65
sg24
F0.69995855081288028
sg40
g41
sg32
g36
sg53
Vz
sS'inverse1.thisIndex'
p244
g33
(g67
S'\x1d\x00\x00\x00'
tRp245
sg51
I0
sS'inverse1.thisN'
p246
I29
sg22
S'z'
sg52
g70
sg30
g31
sS'inverse1.thisRepN'
p247
I0
sg23
I1
sa(dp248
g38
g39
sg37
g12
sS'inverse1.thisTrialN'
p249
I30
sg50
g70
sg24
F0.65007584671184304
sg40
g41
sg32
g36
sg53
Vx
sS'inverse1.thisIndex'
p250
g33
(g67
S'\x1e\x00\x00\x00'
tRp251
sg51
I0
sS'inverse1.thisN'
p252
I30
sg22
S'x'
sg52
g84
sg30
g31
sS'inverse1.thisRepN'
p253
I0
sg23
I1
sa(dp254
g38
g39
sg37
g12
sS'inverse1.thisTrialN'
p255
I31
sg50
g80
sg24
F0.78323830699082464
sg40
g41
sg32
g36
sg53
Vm
sS'inverse1.thisIndex'
p256
g33
(g67
S'\x1f\x00\x00\x00'
tRp257
sg51
I0
sS'inverse1.thisN'
p258
I31
sg22
S'm'
sg52
g70
sg30
g31
sS'inverse1.thisRepN'
p259
I0
sg23
I1
sa(dp260
g38
g39
sg37
g12
sS'inverse1.thisTrialN'
p261
I32
sg50
g80
sg24
F0.70001847335879575
sg40
g41
sg32
g36
sg53
Vm
sS'inverse1.thisIndex'
p262
g33
(g67
S' \x00\x00\x00'
tRp263
sg51
I0
sS'inverse1.thisN'
p264
I32
sg22
S'm'
sg52
g65
sg30
g31
sS'inverse1.thisRepN'
p265
I0
sg23
I1
sa(dp266
g38
g39
sg37
g12
sS'inverse1.thisTrialN'
p267
I33
sg50
g70
sg24
F0.73330362587876152
sg40
g41
sg32
g36
sg53
Vx
sS'inverse1.thisIndex'
p268
g33
(g67
S'!\x00\x00\x00'
tRp269
sg51
I0
sS'inverse1.thisN'
p270
I33
sg22
S'x'
sg52
g84
sg30
g31
sS'inverse1.thisRepN'
p271
I0
sg23
I1
sa(dp272
g38
g39
sg37
g12
sS'inverse1.thisTrialN'
p273
I34
sg50
g84
sg24
F0.88329372706721188
sg40
g41
sg32
g36
sg53
Vn
sS'inverse1.thisIndex'
p274
g33
(g67
S'"\x00\x00\x00'
tRp275
sg51
I1
sS'inverse1.thisN'
p276
I34
sg22
S'm'
sg52
g84
sg30
g31
sS'inverse1.thisRepN'
p277
I0
sg23
I0
sa(dp278
g38
g39
sg37
g12
sS'inverse1.thisTrialN'
p279
I35
sg50
g84
sg24
F0.83324317363076261
sg40
g41
sg32
g36
sg53
Vn
sS'inverse1.thisIndex'
p280
g33
(g67
S'#\x00\x00\x00'
tRp281
sg51
I0
sS'inverse1.thisN'
p282
I35
sg22
S'n'
sg52
g65
sg30
g31
sS'inverse1.thisRepN'
p283
I0
sg23
I1
sa(dp284
g38
g39
sg37
g12
sS'inverse1.thisTrialN'
p285
I36
sg50
g80
sg24
F0.89993663439236116
sg40
g41
sg32
g36
sg53
Vm
sS'inverse1.thisIndex'
p286
g33
(g67
S'$\x00\x00\x00'
tRp287
sg51
I0
sS'inverse1.thisN'
p288
I36
sg22
S'm'
sg52
g84
sg30
g31
sS'inverse1.thisRepN'
p289
I0
sg23
I1
sa(dp290
g38
g39
sg37
g12
sS'inverse1.thisTrialN'
p291
I37
sg50
g80
sg24
F0.76661791200604057
sg40
g41
sg32
g36
sg53
Vm
sS'inverse1.thisIndex'
p292
g33
(g67
S'%\x00\x00\x00'
tRp293
sg51
I0
sS'inverse1.thisN'
p294
I37
sg22
S'm'
sg52
g70
sg30
g31
sS'inverse1.thisRepN'
p295
I0
sg23
I1
sa(dp296
g38
g39
sg37
g12
sS'inverse1.thisTrialN'
p297
I38
sg50
g70
sg24
F0.84998540008746204
sg40
g41
sg32
g36
sg53
Vx
sS'inverse1.thisIndex'
p298
g33
(g67
S'&\x00\x00\x00'
tRp299
sg51
I0
sS'inverse1.thisN'
p300
I38
sg22
S'x'
sg52
g84
sg30
g31
sS'inverse1.thisRepN'
p301
I0
sg23
I1
sa(dp302
g38
g39
sg37
g12
sS'inverse1.thisTrialN'
p303
I39
sg50
g65
sg24
F0.84985462989425287
sg40
g41
sg32
g36
sg53
Vz
sS'inverse1.thisIndex'
p304
g33
(g67
S"'\x00\x00\x00"
tRp305
sg51
I0
sS'inverse1.thisN'
p306
I39
sg22
S'z'
sg52
g80
sg30
g31
sS'inverse1.thisRepN'
p307
I0
sg23
I1
sa(dp308
g38
g39
sg37
g12
sg21
Nsg30
g31
sg40
g41
sg32
g36
sa(dp309
g38
g39
sg37
g12
sVword
p310
VGREEN
p311
sS'conven1.thisTrialN'
p312
I0
sS'conven1.thisRepN'
p313
I0
sVcolor
p314
g311
sg24
F1.6664270868423046
sg32
g36
sVcongruent
p315
I1
sVcorrans
p316
Vn
sg22
S'n'
sS'conven1.thisIndex'
p317
g33
(g67
S'\x06\x00\x00\x00'
tRp318
sg30
g31
sg40
g41
sS'conven1.thisN'
p319
I0
sg23
I1
sa(dp320
g38
g39
sg37
g12
sg310
VRED
p321
sS'conven1.thisTrialN'
p322
I1
sS'conven1.thisRepN'
p323
I0
sg314
VYELLOW
p324
sg24
F0.73321688716532663
sg32
g36
sg315
I0
sg316
Vx
sg22
S'x'
sS'conven1.thisIndex'
p325
g33
(g67
S'\x17\x00\x00\x00'
tRp326
sg30
g31
sg40
g41
sS'conven1.thisN'
p327
I1
sg23
I1
sa(dp328
g38
g39
sg37
g12
sg310
g321
sS'conven1.thisTrialN'
p329
I2
sS'conven1.thisRepN'
p330
I0
sg314
g321
sg24
F0.58329564724044758
sg32
g36
sg315
I1
sg316
Vz
sg22
S'z'
sS'conven1.thisIndex'
p331
g33
(g67
S'\x08\x00\x00\x00'
tRp332
sg30
g31
sg40
g41
sS'conven1.thisN'
p333
I2
sg23
I1
sa(dp334
g38
g39
sg37
g12
sg310
g324
sS'conven1.thisTrialN'
p335
I3
sS'conven1.thisRepN'
p336
I0
sg314
g324
sg24
F1.2831605070059595
sg32
g36
sg315
I1
sg316
Vx
sg22
S'x'
sS'conven1.thisIndex'
p337
g33
(g67
S'&\x00\x00\x00'
tRp338
sg30
g31
sg40
g41
sS'conven1.thisN'
p339
I3
sg23
I1
sa(dp340
g38
g39
sg37
g12
sg310
g311
sS'conven1.thisTrialN'
p341
I4
sS'conven1.thisRepN'
p342
I0
sg314
g311
sg24
F0.94973591042435146
sg32
g36
sg315
I1
sg316
Vn
sg22
S'n'
sS'conven1.thisIndex'
p343
g33
(g67
S'\r\x00\x00\x00'
tRp344
sg30
g31
sg40
g41
sS'conven1.thisN'
p345
I4
sg23
I1
sa(dp346
g38
g39
sg37
g12
sg310
VBLUE
p347
sS'conven1.thisTrialN'
p348
I5
sS'conven1.thisRepN'
p349
I0
sg314
g347
sg24
F0.96660427218012046
sg32
g36
sg315
I1
sg316
Vm
sg22
S'm'
sS'conven1.thisIndex'
p350
g33
(g67
S'\x0e\x00\x00\x00'
tRp351
sg30
g31
sg40
g41
sS'conven1.thisN'
p352
I5
sg23
I1
sa(dp353
g38
g39
sg37
g12
sg310
g347
sS'conven1.thisTrialN'
p354
I6
sS'conven1.thisRepN'
p355
I0
sg314
g347
sg24
F0.49997947404335719
sg32
g36
sg315
I1
sg316
Vm
sg22
S'm'
sS'conven1.thisIndex'
p356
g33
(g67
S' \x00\x00\x00'
tRp357
sg30
g31
sg40
g41
sS'conven1.thisN'
p358
I6
sg23
I1
sa(dp359
g38
g39
sg37
g12
sg310
g347
sS'conven1.thisTrialN'
p360
I7
sS'conven1.thisRepN'
p361
I0
sg314
g347
sg24
F0.4500742576092307
sg32
g36
sg315
I1
sg316
Vm
sg22
S'm'
sS'conven1.thisIndex'
p362
g33
(g67
S'\x14\x00\x00\x00'
tRp363
sg30
g31
sg40
g41
sS'conven1.thisN'
p364
I7
sg23
I1
sa(dp365
g38
g39
sg37
g12
sg310
g321
sS'conven1.thisTrialN'
p366
I8
sS'conven1.thisRepN'
p367
I0
sg314
g321
sg24
F0.83326436171046225
sg32
g36
sg315
I1
sg316
Vz
sg22
S'z'
sS'conven1.thisIndex'
p368
g33
(g67
S'\x0b\x00\x00\x00'
tRp369
sg30
g31
sg40
g41
sS'conven1.thisN'
p370
I8
sg23
I1
sa(dp371
g38
g39
sg37
g12
sg310
g321
sS'conven1.thisTrialN'
p372
I9
sS'conven1.thisRepN'
p373
I0
sg314
g321
sg24
F0.56676066671207082
sg32
g36
sg315
I1
sg316
Vz
sg22
S'z'
sS'conven1.thisIndex'
p374
g33
(g67
S'\x05\x00\x00\x00'
tRp375
sg30
g31
sg40
g41
sS'conven1.thisN'
p376
I9
sg23
I1
sa(dp377
g38
g39
sg37
g12
sg310
g321
sS'conven1.thisTrialN'
p378
I10
sS'conven1.thisRepN'
p379
I0
sg314
g321
sg24
F0.94987793678592425
sg32
g36
sg315
I1
sg316
Vz
sg22
S'z'
sS'conven1.thisIndex'
p380
g33
(g67
S'\x00\x00\x00\x00'
tRp381
sg30
g31
sg40
g41
sS'conven1.thisN'
p382
I10
sg23
I1
sa(dp383
g38
g39
sg37
g12
sg310
g311
sS'conven1.thisTrialN'
p384
I11
sS'conven1.thisRepN'
p385
I0
sg314
g321
sg24
F0.86662201719809673
sg32
g36
sg315
I0
sg316
Vz
sg22
S'z'
sS'conven1.thisIndex'
p386
g33
(g67
S'\x01\x00\x00\x00'
tRp387
sg30
g31
sg40
g41
sS'conven1.thisN'
p388
I11
sg23
I1
sa(dp389
g38
g39
sg37
g12
sg310
g311
sS'conven1.thisTrialN'
p390
I12
sS'conven1.thisRepN'
p391
I0
sg314
g311
sg24
F1.0664699927074253
sg32
g36
sg315
I1
sg316
Vn
sg22
S'n'
sS'conven1.thisIndex'
p392
g33
(g67
S'\t\x00\x00\x00'
tRp393
sg30
g31
sg40
g41
sS'conven1.thisN'
p394
I12
sg23
I1
sa(dp395
g38
g39
sg37
g12
sg310
g324
sS'conven1.thisTrialN'
p396
I13
sS'conven1.thisRepN'
p397
I0
sg314
g324
sg24
F0.74995050596407964
sg32
g36
sg315
I1
sg316
Vx
sg22
S'x'
sS'conven1.thisIndex'
p398
g33
(g67
S'\x10\x00\x00\x00'
tRp399
sg30
g31
sg40
g41
sS'conven1.thisN'
p400
I13
sg23
I1
sa(dp401
g38
g39
sg37
g12
sg310
g347
sS'conven1.thisTrialN'
p402
I14
sS'conven1.thisRepN'
p403
I0
sg314
g347
sg24
F0.81663403481434216
sg32
g36
sg315
I1
sg316
Vm
sg22
S'm'
sS'conven1.thisIndex'
p404
g33
(g67
S'%\x00\x00\x00'
tRp405
sg30
g31
sg40
g41
sS'conven1.thisN'
p406
I14
sg23
I1
sa(dp407
g38
g39
sg37
g12
sg310
g324
sS'conven1.thisTrialN'
p408
I15
sS'conven1.thisRepN'
p409
I0
sg314
g324
sg24
F0.74998063276871108
sg32
g36
sg315
I1
sg316
Vx
sg22
S'x'
sS'conven1.thisIndex'
p410
g33
(g67
S'\n\x00\x00\x00'
tRp411
sg30
g31
sg40
g41
sS'conven1.thisN'
p412
I15
sg23
I1
sa(dp413
g38
g39
sg37
g12
sg310
g321
sS'conven1.thisTrialN'
p414
I16
sS'conven1.thisRepN'
p415
I0
sg314
g321
sg24
F0.74994653319663485
sg32
g36
sg315
I1
sg316
Vz
sg22
S'z'
sS'conven1.thisIndex'
p416
g33
(g67
S'\x1d\x00\x00\x00'
tRp417
sg30
g31
sg40
g41
sS'conven1.thisN'
p418
I16
sg23
I1
sa(dp419
g38
g39
sg37
g12
sg310
g311
sS'conven1.thisTrialN'
p420
I17
sS'conven1.thisRepN'
p421
I0
sg314
g311
sg24
F0.91657027192923124
sg32
g36
sg315
I1
sg316
Vn
sg22
S'n'
sS'conven1.thisIndex'
p422
g33
(g67
S'\x1c\x00\x00\x00'
tRp423
sg30
g31
sg40
g41
sS'conven1.thisN'
p424
I17
sg23
I1
sa(dp425
g38
g39
sg37
g12
sg310
g324
sS'conven1.thisTrialN'
p426
I18
sS'conven1.thisRepN'
p427
I0
sg314
g324
sg24
F0.63329985175005277
sg32
g36
sg315
I1
sg316
Vz
sg22
S'x'
sS'conven1.thisIndex'
p428
g33
(g67
S'\x03\x00\x00\x00'
tRp429
sg30
g31
sg40
g41
sS'conven1.thisN'
p430
I18
sg23
I0
sa(dp431
g38
g39
sg37
g12
sg310
g321
sS'conven1.thisTrialN'
p432
I19
sS'conven1.thisRepN'
p433
I0
sg314
g321
sg24
F0.86652534657332581
sg32
g36
sg315
I1
sg316
Vz
sg22
S'z'
sS'conven1.thisIndex'
p434
g33
(g67
S'\x11\x00\x00\x00'
tRp435
sg30
g31
sg40
g41
sS'conven1.thisN'
p436
I19
sg23
I1
sa(dp437
g38
g39
sg37
g12
sg310
g347
sS'conven1.thisTrialN'
p438
I20
sS'conven1.thisRepN'
p439
I0
sg314
g347
sg24
F0.89983565993679804
sg32
g36
sg315
I1
sg316
Vm
sg22
S'm'
sS'conven1.thisIndex'
p440
g33
(g67
S'$\x00\x00\x00'
tRp441
sg30
g31
sg40
g41
sS'conven1.thisN'
p442
I20
sg23
I1
sa(dp443
g38
g39
sg37
g12
sg310
g311
sS'conven1.thisTrialN'
p444
I21
sS'conven1.thisRepN'
p445
I0
sg314
g311
sg24
F0.88323016282447497
sg32
g36
sg315
I1
sg316
Vn
sg22
S'n'
sS'conven1.thisIndex'
p446
g33
(g67
S'#\x00\x00\x00'
tRp447
sg30
g31
sg40
g41
sS'conven1.thisN'
p448
I21
sg23
I1
sa(dp449
g38
g39
sg37
g12
sg310
g324
sS'conven1.thisTrialN'
p450
I22
sS'conven1.thisRepN'
p451
I0
sg314
g324
sg24
F0.75000182084841072
sg32
g36
sg315
I1
sg316
Vx
sg22
S'x'
sS'conven1.thisIndex'
p452
g33
(g67
S'\x1b\x00\x00\x00'
tRp453
sg30
g31
sg40
g41
sS'conven1.thisN'
p454
I22
sg23
I1
sa(dp455
g38
g39
sg37
g12
sg310
g324
sS'conven1.thisTrialN'
p456
I23
sS'conven1.thisRepN'
p457
I0
sg314
g324
sg24
F0.58329962000425439
sg32
g36
sg315
I1
sg316
Vx
sg22
S'x'
sS'conven1.thisIndex'
p458
g33
(g67
S'\x1e\x00\x00\x00'
tRp459
sg30
g31
sg40
g41
sS'conven1.thisN'
p460
I23
sg23
I1
sa(dp461
g38
g39
sg37
g12
sg310
g347
sS'conven1.thisTrialN'
p462
I24
sS'conven1.thisRepN'
p463
I0
sg314
g347
sg24
F0.66665353447024245
sg32
g36
sg315
I1
sg316
Vm
sg22
S'm'
sS'conven1.thisIndex'
p464
g33
(g67
S'\x1a\x00\x00\x00'
tRp465
sg30
g31
sg40
g41
sS'conven1.thisN'
p466
I24
sg23
I1
sa(dp467
g38
g39
sg37
g12
sg310
g347
sS'conven1.thisTrialN'
p468
I25
sS'conven1.thisRepN'
p469
I0
sg314
g347
sg24
F0.50003045786797884
sg32
g36
sg315
I1
sg316
Vm
sg22
S'm'
sS'conven1.thisIndex'
p470
g33
(g67
S'\x13\x00\x00\x00'
tRp471
sg30
g31
sg40
g41
sS'conven1.thisN'
p472
I25
sg23
I1
sa(dp473
g38
g39
sg37
g12
sg310
g347
sS'conven1.thisTrialN'
p474
I26
sS'conven1.thisRepN'
p475
I0
sg314
g347
sg24
F0.43335950944310753
sg32
g36
sg315
I1
sg316
Vm
sg22
S'm'
sS'conven1.thisIndex'
p476
g33
(g67
S'\x0f\x00\x00\x00'
tRp477
sg30
g31
sg40
g41
sS'conven1.thisN'
p478
I26
sg23
I1
sa(dp479
g38
g39
sg37
g12
sg310
g347
sS'conven1.thisTrialN'
p480
I27
sS'conven1.thisRepN'
p481
I0
sg314
g347
sg24
F0.41664707872769213
sg32
g36
sg315
I1
sg316
Vm
sg22
S'm'
sS'conven1.thisIndex'
p482
g33
(g67
S'\x1f\x00\x00\x00'
tRp483
sg30
g31
sg40
g41
sS'conven1.thisN'
p484
I27
sg23
I1
sa(dp485
g38
g39
sg37
g12
sg310
g347
sS'conven1.thisTrialN'
p486
I28
sS'conven1.thisRepN'
p487
I0
sg314
g311
sg24
F0.83332295999935013
sg32
g36
sg315
I0
sg316
Vn
sg22
S'n'
sS'conven1.thisIndex'
p488
g33
(g67
S'"\x00\x00\x00'
tRp489
sg30
g31
sg40
g41
sS'conven1.thisN'
p490
I28
sg23
I1
sa(dp491
g38
g39
sg37
g12
sg310
g321
sS'conven1.thisTrialN'
p492
I29
sS'conven1.thisRepN'
p493
I0
sg314
g321
sg24
F0.701272874022834
sg32
g36
sg315
I1
sg316
Vz
sg22
S'z'
sS'conven1.thisIndex'
p494
g33
(g67
S'\x18\x00\x00\x00'
tRp495
sg30
g31
sg40
g41
sS'conven1.thisN'
p496
I29
sg23
I1
sa(dp497
g38
g39
sg37
g12
sg310
g311
sS'conven1.thisTrialN'
p498
I30
sS'conven1.thisRepN'
p499
I0
sg314
g311
sg24
F0.966557592186291
sg32
g36
sg315
I1
sg316
Vn
sg22
S'n'
sS'conven1.thisIndex'
p500
g33
(g67
S'\x19\x00\x00\x00'
tRp501
sg30
g31
sg40
g41
sS'conven1.thisN'
p502
I30
sg23
I1
sa(dp503
g38
g39
sg37
g12
sg310
g311
sS'conven1.thisTrialN'
p504
I31
sS'conven1.thisRepN'
p505
I0
sg314
g311
sg24
F0.7500094353199529
sg32
g36
sg315
I1
sg316
Vn
sg22
S'n'
sS'conven1.thisIndex'
p506
g33
(g67
S'\x16\x00\x00\x00'
tRp507
sg30
g31
sg40
g41
sS'conven1.thisN'
p508
I31
sg23
I1
sa(dp509
g38
g39
sg37
g12
sg310
g324
sS'conven1.thisTrialN'
p510
I32
sS'conven1.thisRepN'
p511
I0
sg314
g324
sg24
F0.73322681908030063
sg32
g36
sg315
I1
sg316
Vx
sg22
S'x'
sS'conven1.thisIndex'
p512
g33
(g67
S'\x07\x00\x00\x00'
tRp513
sg30
g31
sg40
g41
sS'conven1.thisN'
p514
I32
sg23
I1
sa(dp515
g38
g39
sg37
g12
sg310
g311
sS'conven1.thisTrialN'
p516
I33
sS'conven1.thisRepN'
p517
I0
sg314
g347
sg24
F0.71651803006534465
sg32
g36
sg315
I0
sg316
Vm
sg22
S'm'
sS'conven1.thisIndex'
p518
g33
(g67
S'\x0c\x00\x00\x00'
tRp519
sg30
g31
sg40
g41
sS'conven1.thisN'
p520
I33
sg23
I1
sa(dp521
g38
g39
sg37
g12
sg310
g311
sS'conven1.thisTrialN'
p522
I34
sS'conven1.thisRepN'
p523
I0
sg314
g311
sg24
F0.79995702792075463
sg32
g36
sg315
I1
sg316
Vn
sg22
S'n'
sS'conven1.thisIndex'
p524
g33
(g67
S"'\x00\x00\x00"
tRp525
sg30
g31
sg40
g41
sS'conven1.thisN'
p526
I34
sg23
I1
sa(dp527
g38
g39
sg37
g12
sg310
g324
sS'conven1.thisTrialN'
p528
I35
sS'conven1.thisRepN'
p529
I0
sg314
g324
sg24
F0.85015622899663867
sg32
g36
sg315
I1
sg316
Vx
sg22
S'x'
sS'conven1.thisIndex'
p530
g33
(g67
S'!\x00\x00\x00'
tRp531
sg30
g31
sg40
g41
sS'conven1.thisN'
p532
I35
sg23
I1
sa(dp533
g38
g39
sg37
g12
sg310
g311
sS'conven1.thisTrialN'
p534
I36
sS'conven1.thisRepN'
p535
I0
sg314
g311
sg24
F1.0998422150005354
sg32
g36
sg315
I1
sg316
Vn
sg22
S'n'
sS'conven1.thisIndex'
p536
g33
(g67
S'\x04\x00\x00\x00'
tRp537
sg30
g31
sg40
g41
sS'conven1.thisN'
p538
I36
sg23
I1
sa(dp539
g38
g39
sg37
g12
sg310
g321
sS'conven1.thisTrialN'
p540
I37
sS'conven1.thisRepN'
p541
I0
sg314
g321
sg24
F0.81660589438979514
sg32
g36
sg315
I1
sg316
Vz
sg22
S'z'
sS'conven1.thisIndex'
p542
g33
(g67
S'\x12\x00\x00\x00'
tRp543
sg30
g31
sg40
g41
sS'conven1.thisN'
p544
I37
sg23
I1
sa(dp545
g38
g39
sg37
g12
sg310
g347
sS'conven1.thisTrialN'
p546
I38
sS'conven1.thisRepN'
p547
I0
sg314
g347
sg24
F1.0664633714368392
sg32
g36
sg315
I1
sg316
Vz
sg22
S'm'
sS'conven1.thisIndex'
p548
g33
(g67
S'\x02\x00\x00\x00'
tRp549
sg30
g31
sg40
g41
sS'conven1.thisN'
p550
I38
sg23
I0
sa(dp551
g38
g39
sg37
g12
sg310
g321
sS'conven1.thisTrialN'
p552
I39
sS'conven1.thisRepN'
p553
I0
sg314
g321
sg24
F0.66665618298065965
sg32
g36
sg315
I1
sg316
Vz
sg22
S'z'
sS'conven1.thisIndex'
p554
g33
(g67
S'\x15\x00\x00\x00'
tRp555
sg30
g31
sg40
g41
sS'conven1.thisN'
p556
I39
sg23
I1
sa(dp557
g38
g39
sg37
g12
sg21
Nsg30
g31
sg40
g41
sg32
g36
sa(dp558
g38
g39
sg37
g12
sg32
g36
sVword
p559
VRED
p560
sS'inverse2.thisN'
p561
I0
sg24
F1.099855126489274
sS'inverse2.thisRepN'
p562
I0
sS'inverse2.thisIndex'
p563
g33
(g67
S'#\x00\x00\x00'
tRp564
sVcolor
p565
VGREEN
p566
sVcongruent
p567
I0
sVcorrans
p568
Vn
sg22
S'n'
sS'inverse2.thisTrialN'
p569
I0
sg30
g31
sg40
g41
sg23
I1
sa(dp570
g38
g39
sg37
g12
sg32
g36
sg559
g560
sS'inverse2.thisN'
p571
I1
sg24
F0.53324608699404052
sS'inverse2.thisRepN'
p572
I0
sS'inverse2.thisIndex'
p573
g33
(g67
S'\x13\x00\x00\x00'
tRp574
sg565
g566
sg567
I0
sg568
Vm
sg22
S'n'
sS'inverse2.thisTrialN'
p575
I1
sg30
g31
sg40
g41
sg23
I0
sa(dp576
g38
g39
sg37
g12
sg32
g36
sg559
g560
sS'inverse2.thisN'
p577
I2
sg24
F0.60002827284552041
sS'inverse2.thisRepN'
p578
I0
sS'inverse2.thisIndex'
p579
g33
(g67
S' \x00\x00\x00'
tRp580
sg565
VBLUE
p581
sg567
I0
sg568
Vm
sg22
S'm'
sS'inverse2.thisTrialN'
p582
I2
sg30
g31
sg40
g41
sg23
I1
sa(dp583
g38
g39
sg37
g12
sg32
g36
sg559
g581
sS'inverse2.thisN'
p584
I3
sg24
F0.76662320902687497
sS'inverse2.thisRepN'
p585
I0
sS'inverse2.thisIndex'
p586
g33
(g67
S'\x12\x00\x00\x00'
tRp587
sg565
g560
sg567
I0
sg568
Vz
sg22
S'z'
sS'inverse2.thisTrialN'
p588
I3
sg30
g31
sg40
g41
sg23
I1
sa(dp589
g38
g39
sg37
g12
sg32
g36
sg559
g581
sS'inverse2.thisN'
p590
I4
sg24
F0.71659119515970815
sS'inverse2.thisRepN'
p591
I0
sS'inverse2.thisIndex'
p592
g33
(g67
S'\x07\x00\x00\x00'
tRp593
sg565
VYELLOW
p594
sg567
I0
sg568
Vx
sg22
S'x'
sS'inverse2.thisTrialN'
p595
I4
sg30
g31
sg40
g41
sg23
I1
sa(dp596
g38
g39
sg37
g12
sg32
g36
sg559
g560
sS'inverse2.thisN'
p597
I5
sg24
F0.94973888999447809
sS'inverse2.thisRepN'
p598
I0
sS'inverse2.thisIndex'
p599
g33
(g67
S'\x0e\x00\x00\x00'
tRp600
sg565
g581
sg567
I0
sg568
Vm
sg22
S'm'
sS'inverse2.thisTrialN'
p601
I5
sg30
g31
sg40
g41
sg23
I1
sa(dp602
g38
g39
sg37
g12
sg32
g36
sg559
g581
sS'inverse2.thisN'
p603
I6
sg24
F0.78329856060008751
sS'inverse2.thisRepN'
p604
I0
sS'inverse2.thisIndex'
p605
g33
(g67
S'\x18\x00\x00\x00'
tRp606
sg565
g560
sg567
I0
sg568
Vz
sg22
S'z'
sS'inverse2.thisTrialN'
p607
I6
sg30
g31
sg40
g41
sg23
I1
sa(dp608
g38
g39
sg37
g12
sg32
g36
sg559
g560
sS'inverse2.thisN'
p609
I7
sg24
F0.48330941949097905
sS'inverse2.thisRepN'
p610
I0
sS'inverse2.thisIndex'
p611
g33
(g67
S'\x0b\x00\x00\x00'
tRp612
sg565
g560
sg567
I0
sg568
Vz
sg22
S'z'
sS'inverse2.thisTrialN'
p613
I7
sg30
g31
sg40
g41
sg23
I1
sa(dp614
g38
g39
sg37
g12
sg32
g36
sg559
g594
sS'inverse2.thisN'
p615
I8
sg24
F0.85000592604410485
sS'inverse2.thisRepN'
p616
I0
sS'inverse2.thisIndex'
p617
g33
(g67
S'\x1f\x00\x00\x00'
tRp618
sg565
g581
sg567
I0
sg568
Vm
sg22
S'm'
sS'inverse2.thisTrialN'
p619
I8
sg30
g31
sg40
g41
sg23
I1
sa(dp620
g38
g39
sg37
g12
sg32
g36
sg559
g566
sS'inverse2.thisN'
p621
I9
sg24
F0.43335818518607994
sS'inverse2.thisRepN'
p622
I0
sS'inverse2.thisIndex'
p623
g33
(g67
S'\x0f\x00\x00\x00'
tRp624
sg565
g581
sg567
I0
sg568
Vm
sg22
S'm'
sS'inverse2.thisTrialN'
p625
I9
sg30
g31
sg40
g41
sg23
I1
sa(dp626
g38
g39
sg37
g12
sg32
g36
sg559
g566
sS'inverse2.thisN'
p627
I10
sg24
F0.76662089158344315
sS'inverse2.thisRepN'
p628
I0
sS'inverse2.thisIndex'
p629
g33
(g67
S'\x10\x00\x00\x00'
tRp630
sg565
g594
sg567
I0
sg568
Vx
sg22
S'x'
sS'inverse2.thisTrialN'
p631
I10
sg30
g31
sg40
g41
sg23
I1
sa(dp632
g38
g39
sg37
g12
sg32
g36
sg559
g581
sS'inverse2.thisN'
p633
I11
sg24
F1.1830984656517103
sS'inverse2.thisRepN'
p634
I0
sS'inverse2.thisIndex'
p635
g33
(g67
S'\x0c\x00\x00\x00'
tRp636
sg565
g581
sg567
I1
sg568
Vm
sg22
S'm'
sS'inverse2.thisTrialN'
p637
I11
sg30
g31
sg40
g41
sg23
I1
sa(dp638
g38
g39
sg37
g12
sg32
g36
sg559
g566
sS'inverse2.thisN'
p639
I12
sg24
F0.56674576883597183
sS'inverse2.thisRepN'
p640
I0
sS'inverse2.thisIndex'
p641
g33
(g67
S'\x14\x00\x00\x00'
tRp642
sg565
g581
sg567
I0
sg568
Vm
sg22
S'm'
sS'inverse2.thisTrialN'
p643
I12
sg30
g31
sg40
g41
sg23
I1
sa(dp644
g38
g39
sg37
g12
sg32
g36
sg559
g581
sS'inverse2.thisN'
p645
I13
sg24
F0.66658963916052016
sS'inverse2.thisRepN'
p646
I0
sS'inverse2.thisIndex'
p647
g33
(g67
S'\n\x00\x00\x00'
tRp648
sg565
g594
sg567
I0
sg568
Vx
sg22
S'x'
sS'inverse2.thisTrialN'
p649
I13
sg30
g31
sg40
g41
sg23
I1
sa(dp650
g38
g39
sg37
g12
sg32
g36
sg559
g566
sS'inverse2.thisN'
p651
I14
sg24
F0.84994203073074459
sS'inverse2.thisRepN'
p652
I0
sS'inverse2.thisIndex'
p653
g33
(g67
S'"\x00\x00\x00'
tRp654
sg565
g566
sg567
I1
sg568
Vn
sg22
S'n'
sS'inverse2.thisTrialN'
p655
I14
sg30
g31
sg40
g41
sg23
I1
sa(dp656
g38
g39
sg37
g12
sg32
g36
sg559
g560
sS'inverse2.thisN'
p657
I15
sg24
F0.64996626459833351
sS'inverse2.thisRepN'
p658
I0
sS'inverse2.thisIndex'
p659
g33
(g67
S'\x04\x00\x00\x00'
tRp660
sg565
g566
sg567
I0
sg568
Vn
sg22
S'n'
sS'inverse2.thisTrialN'
p661
I15
sg30
g31
sg40
g41
sg23
I1
sa(dp662
g38
g39
sg37
g12
sg32
g36
sg559
g594
sS'inverse2.thisN'
p663
I16
sg24
F0.53333613633731147
sS'inverse2.thisRepN'
p664
I0
sS'inverse2.thisIndex'
p665
g33
(g67
S'\x1c\x00\x00\x00'
tRp666
sg565
g566
sg567
I0
sg568
Vn
sg22
S'n'
sS'inverse2.thisTrialN'
p667
I16
sg30
g31
sg40
g41
sg23
I1
sa(dp668
g38
g39
sg37
g12
sg32
g36
sg559
g566
sS'inverse2.thisN'
p669
I17
sg24
F0.966554281549179
sS'inverse2.thisRepN'
p670
I0
sS'inverse2.thisIndex'
p671
g33
(g67
S'\x02\x00\x00\x00'
tRp672
sg565
g581
sg567
I0
sg568
Vz
sg22
S'm'
sS'inverse2.thisTrialN'
p673
I17
sg30
g31
sg40
g41
sg23
I0
sa(dp674
g38
g39
sg37
g12
sg32
g36
sg559
g566
sS'inverse2.thisN'
p675
I18
sg24
F1.016567424780078
sS'inverse2.thisRepN'
p676
I0
sS'inverse2.thisIndex'
p677
g33
(g67
S'\x1e\x00\x00\x00'
tRp678
sg565
g594
sg567
I0
sg568
Vx
sg22
S'x'
sS'inverse2.thisTrialN'
p679
I18
sg30
g31
sg40
g41
sg23
I1
sa(dp680
g38
g39
sg37
g12
sg32
g36
sg559
g566
sS'inverse2.thisN'
p681
I19
sg24
F0.73324701396995806
sS'inverse2.thisRepN'
p682
I0
sS'inverse2.thisIndex'
p683
g33
(g67
S'\t\x00\x00\x00'
tRp684
sg565
g560
sg567
I0
sg568
Vz
sg22
S'z'
sS'inverse2.thisTrialN'
p685
I19
sg30
g31
sg40
g41
sg23
I1
sa(dp686
g38
g39
sg37
g12
sg32
g36
sg559
g566
sS'inverse2.thisN'
p687
I20
sg24
F0.91628456388571067
sS'inverse2.thisRepN'
p688
I0
sS'inverse2.thisIndex'
p689
g33
(g67
S'!\x00\x00\x00'
tRp690
sg565
g594
sg567
I0
sg568
Vx
sg22
S'x'
sS'inverse2.thisTrialN'
p691
I20
sg30
g31
sg40
g41
sg23
I1
sa(dp692
g38
g39
sg37
g12
sg32
g36
sg559
g594
sS'inverse2.thisN'
p693
I21
sg24
F0.94989515210181708
sS'inverse2.thisRepN'
p694
I0
sS'inverse2.thisIndex'
p695
g33
(g67
S'\x06\x00\x00\x00'
tRp696
sg565
g566
sg567
I0
sg568
Vn
sg22
S'n'
sS'inverse2.thisTrialN'
p697
I21
sg30
g31
sg40
g41
sg23
I1
sa(dp698
g38
g39
sg37
g12
sg32
g36
sg559
g560
sS'inverse2.thisN'
p699
I22
sg24
F0.86650150997957098
sS'inverse2.thisRepN'
p700
I0
sS'inverse2.thisIndex'
p701
g33
(g67
S'\x03\x00\x00\x00'
tRp702
sg565
g594
sg567
I0
sg568
Vz
sg22
S'x'
sS'inverse2.thisTrialN'
p703
I22
sg30
g31
sg40
g41
sg23
I0
sa(dp704
g38
g39
sg37
g12
sg32
g36
sg559
g594
sS'inverse2.thisN'
p705
I23
sg24
F0.66662142128188862
sS'inverse2.thisRepN'
p706
I0
sS'inverse2.thisIndex'
p707
g33
(g67
S'\x17\x00\x00\x00'
tRp708
sg565
g594
sg567
I1
sg568
Vx
sg22
S'x'
sS'inverse2.thisTrialN'
p709
I23
sg30
g31
sg40
g41
sg23
I1
sa(dp710
g38
g39
sg37
g12
sg32
g36
sg559
g581
sS'inverse2.thisN'
p711
I24
sg24
F0.66664525787564344
sS'inverse2.thisRepN'
p712
I0
sS'inverse2.thisIndex'
p713
g33
(g67
S"'\x00\x00\x00"
tRp714
sg565
g560
sg567
I0
sg568
Vz
sg22
S'z'
sS'inverse2.thisTrialN'
p715
I24
sg30
g31
sg40
g41
sg23
I1
sa(dp716
g38
g39
sg37
g12
sg32
g36
sg559
g560
sS'inverse2.thisN'
p717
I25
sg24
F0.68337291752686724
sS'inverse2.thisRepN'
p718
I0
sS'inverse2.thisIndex'
p719
g33
(g67
S'\x01\x00\x00\x00'
tRp720
sg565
g560
sg567
I1
sg568
Vz
sg22
S'z'
sS'inverse2.thisTrialN'
p721
I25
sg30
g31
sg40
g41
sg23
I1
sa(dp722
g38
g39
sg37
g12
sg32
g36
sg559
g594
sS'inverse2.thisN'
p723
I26
sg24
F0.63322999728916329
sS'inverse2.thisRepN'
p724
I0
sS'inverse2.thisIndex'
p725
g33
(g67
S'\x1d\x00\x00\x00'
tRp726
sg565
g560
sg567
I0
sg568
Vz
sg22
S'z'
sS'inverse2.thisTrialN'
p727
I26
sg30
g31
sg40
g41
sg23
I1
sa(dp728
g38
g39
sg37
g12
sg32
g36
sg559
g594
sS'inverse2.thisN'
p729
I27
sg24
F0.55004426322921063
sS'inverse2.thisRepN'
p730
I0
sS'inverse2.thisIndex'
p731
g33
(g67
S'\x15\x00\x00\x00'
tRp732
sg565
g560
sg567
I0
sg568
Vz
sg22
S'z'
sS'inverse2.thisTrialN'
p733
I27
sg30
g31
sg40
g41
sg23
I1
sa(dp734
g38
g39
sg37
g12
sg32
g36
sg559
g560
sS'inverse2.thisN'
p735
I28
sg24
F0.88326326920287102
sS'inverse2.thisRepN'
p736
I0
sS'inverse2.thisIndex'
p737
g33
(g67
S'\r\x00\x00\x00'
tRp738
sg565
g566
sg567
I0
sg568
Vn
sg22
S'n'
sS'inverse2.thisTrialN'
p739
I28
sg30
g31
sg40
g41
sg23
I1
sa(dp740
g38
g39
sg37
g12
sg32
g36
sg559
g594
sS'inverse2.thisN'
p741
I29
sg24
F0.63336805089056725
sS'inverse2.thisRepN'
p742
I0
sS'inverse2.thisIndex'
p743
g33
(g67
S'%\x00\x00\x00'
tRp744
sg565
g581
sg567
I0
sg568
Vm
sg22
S'm'
sS'inverse2.thisTrialN'
p745
I29
sg30
g31
sg40
g41
sg23
I1
sa(dp746
g38
g39
sg37
g12
sg32
g36
sg559
g566
sS'inverse2.thisN'
p747
I30
sg24
F0.46669597684740438
sS'inverse2.thisRepN'
p748
I0
sS'inverse2.thisIndex'
p749
g33
(g67
S'\x1a\x00\x00\x00'
tRp750
sg565
g581
sg567
I0
sg568
Vm
sg22
S'm'
sS'inverse2.thisTrialN'
p751
I30
sg30
g31
sg40
g41
sg23
I1
sa(dp752
g38
g39
sg37
g12
sg32
g36
sg559
g581
sS'inverse2.thisN'
p753
I31
sg24
F0.79998119557785685
sS'inverse2.thisRepN'
p754
I0
sS'inverse2.thisIndex'
p755
g33
(g67
S'\x05\x00\x00\x00'
tRp756
sg565
g560
sg567
I0
sg568
Vz
sg22
S'z'
sS'inverse2.thisTrialN'
p757
I31
sg30
g31
sg40
g41
sg23
I1
sa(dp758
g38
g39
sg37
g12
sg32
g36
sg559
g566
sS'inverse2.thisN'
p759
I32
sg24
F0.74973498344479594
sS'inverse2.thisRepN'
p760
I0
sS'inverse2.thisIndex'
p761
g33
(g67
S'$\x00\x00\x00'
tRp762
sg565
g581
sg567
I0
sg568
Vm
sg22
S'm'
sS'inverse2.thisTrialN'
p763
I32
sg30
g31
sg40
g41
sg23
I1
sa(dp764
g38
g39
sg37
g12
sg32
g36
sg559
g560
sS'inverse2.thisN'
p765
I33
sg24
F1.0831039613112807
sS'inverse2.thisRepN'
p766
I0
sS'inverse2.thisIndex'
p767
g33
(g67
S'\x19\x00\x00\x00'
tRp768
sg565
g566
sg567
I0
sg568
Vn
sg22
S'n'
sS'inverse2.thisTrialN'
p769
I33
sg30
g31
sg40
g41
sg23
I1
sa(dp770
g38
g39
sg37
g12
sg32
g36
sg559
g581
sS'inverse2.thisN'
p771
I34
sg24
F0.53348246653331444
sS'inverse2.thisRepN'
p772
I0
sS'inverse2.thisIndex'
p773
g33
(g67
S'\x16\x00\x00\x00'
tRp774
sg565
g566
sg567
I0
sg568
Vn
sg22
S'n'
sS'inverse2.thisTrialN'
p775
I34
sg30
g31
sg40
g41
sg23
I1
sa(dp776
g38
g39
sg37
g12
sg32
g36
sg559
g581
sS'inverse2.thisN'
p777
I35
sg24
F1.0164379788438964
sS'inverse2.thisRepN'
p778
I0
sS'inverse2.thisIndex'
p779
g33
(g67
S'\x08\x00\x00\x00'
tRp780
sg565
g566
sg567
I0
sg568
Vn
sg22
S'n'
sS'inverse2.thisTrialN'
p781
I35
sg30
g31
sg40
g41
sg23
I1
sa(dp782
g38
g39
sg37
g12
sg32
g36
sg559
g566
sS'inverse2.thisN'
p783
I36
sg24
F0.70002641889004735
sS'inverse2.thisRepN'
p784
I0
sS'inverse2.thisIndex'
p785
g33
(g67
S'\x1b\x00\x00\x00'
tRp786
sg565
g594
sg567
I0
sg568
Vx
sg22
S'x'
sS'inverse2.thisTrialN'
p787
I36
sg30
g31
sg40
g41
sg23
I1
sa(dp788
g38
g39
sg37
g12
sg32
g36
sg559
g594
sS'inverse2.thisN'
p789
I37
sg24
F0.69970528702106094
sS'inverse2.thisRepN'
p790
I0
sS'inverse2.thisIndex'
p791
g33
(g67
S'\x11\x00\x00\x00'
tRp792
sg565
g560
sg567
I0
sg568
Vz
sg22
S'z'
sS'inverse2.thisTrialN'
p793
I37
sg30
g31
sg40
g41
sg23
I1
sa(dp794
g38
g39
sg37
g12
sg32
g36
sg559
g566
sS'inverse2.thisN'
p795
I38
sg24
F0.71664416536441422
sS'inverse2.thisRepN'
p796
I0
sS'inverse2.thisIndex'
p797
g33
(g67
S'&\x00\x00\x00'
tRp798
sg565
g594
sg567
I0
sg568
Vx
sg22
S'x'
sS'inverse2.thisTrialN'
p799
I38
sg30
g31
sg40
g41
sg23
I1
sa(dp800
g38
g39
sg37
g12
sg32
g36
sg559
g594
sS'inverse2.thisN'
p801
I39
sg24
F1.1330551956161798
sS'inverse2.thisRepN'
p802
I0
sS'inverse2.thisIndex'
p803
g33
(g67
S'\x00\x00\x00\x00'
tRp804
sg565
g560
sg567
I0
sg568
Vz
sg22
S'z'
sS'inverse2.thisTrialN'
p805
I39
sg30
g31
sg40
g41
sg23
I1
sa(dp806
g38
g39
sg37
g12
sg21
Nsg30
g31
sg40
g41
sg32
g36
sa(dp807
g38
g39
sg37
g12
sg40
g41
sg30
g31
sg26
F0.80004608407762134
sg32
g36
sg25
S'space'
p808
sasS'loops'
p809
(lp810
g1
(cpsychopy.data
TrialHandler
p811
g3
NtRp812
(dp813
S'origin'
p814
V<PsychoPy2experiment version="1.82.01" encoding="utf-8">\u000a  <Settings>\u000a    <Param name="Show mouse" val="False" valType="bool" updates="None"/>\u000a    <Param name="Data filename" val="'data/%s_%s_%s' %(expInfo['participant'], expName, expInfo['date'])" valType="code" updates="None"/>\u000a    <Param name="Monitor" val="testMonitor" valType="str" updates="None"/>\u000a    <Param name="Enable Escape" val="True" valType="bool" updates="None"/>\u000a    <Param name="color" val="$[0,0,0]" valType="str" updates="None"/>\u000a    <Param name="Window size (pixels)" val="[1024, 768]" valType="code" updates="None"/>\u000a    <Param name="Full-screen window" val="True" valType="bool" updates="None"/>\u000a    <Param name="colorSpace" val="rgb" valType="str" updates="None"/>\u000a    <Param name="Experiment info" val="{'participant':'', 'session':'001'}" valType="code" updates="None"/>\u000a    <Param name="Save csv file" val="False" valType="bool" updates="None"/>\u000a    <Param name="Show info dlg" val="True" valType="bool" updates="None"/>\u000a    <Param name="Save wide csv file" val="True" valType="bool" updates="None"/>\u000a    <Param name="Save psydat file" val="True" valType="bool" updates="None"/>\u000a    <Param name="expName" val="stroop short" valType="str" updates="None"/>\u000a    <Param name="logging level" val="exp" valType="code" updates="None"/>\u000a    <Param name="blendMode" val="avg" valType="str" updates="None"/>\u000a    <Param name="Save excel file" val="False" valType="bool" updates="None"/>\u000a    <Param name="Units" val="use prefs" valType="str" updates="None"/>\u000a    <Param name="Save log file" val="True" valType="bool" updates="None"/>\u000a    <Param name="Screen" val="1" valType="num" updates="None"/>\u000a  </Settings>\u000a  <Routines>\u000a    <Routine name="feedback">\u000a      <CodeComponent name="code_2">\u000a        <Param name="Begin Experiment" val="#msg variable just needs some value at start&#10;msg=''" valType="extendedCode" updates="constant"/>\u000a        <Param name="name" val="code_2" valType="code" updates="None"/>\u000a        <Param name="Begin Routine" val="if resp.corr:#stored on last run routine&#10;  msg=&quot;Correct! :)&quot;&#10;else:&#10;  msg=&quot;Incorrect! :(&quot;" valType="extendedCode" updates="constant"/>\u000a        <Param name="End Routine" val="" valType="extendedCode" updates="constant"/>\u000a        <Param name="End Experiment" val="" valType="extendedCode" updates="constant"/>\u000a        <Param name="Each Frame" val="" valType="extendedCode" updates="constant"/>\u000a      </CodeComponent>\u000a      <TextComponent name="text_4">\u000a        <Param name="opacity" val="1" valType="code" updates="constant"/>\u000a        <Param name="colorSpace" val="rgb" valType="str" updates="constant"/>\u000a        <Param name="name" val="text_4" valType="code" updates="None"/>\u000a        <Param name="wrapWidth" val="" valType="code" updates="constant"/>\u000a        <Param name="color" val="white" valType="str" updates="constant"/>\u000a        <Param name="text" val="$msg" valType="str" updates="set every repeat"/>\u000a        <Param name="stopVal" val="1.0" valType="code" updates="constant"/>\u000a        <Param name="durationEstim" val="" valType="code" updates="None"/>\u000a        <Param name="pos" val="[0, 0]" valType="code" updates="constant"/>\u000a        <Param name="flip" val="" valType="str" updates="constant"/>\u000a        <Param name="startEstim" val="" valType="code" updates="None"/>\u000a        <Param name="units" val="from exp settings" valType="str" updates="None"/>\u000a        <Param name="startType" val="time (s)" valType="str" updates="None"/>\u000a        <Param name="ori" val="0" valType="code" updates="constant"/>\u000a        <Param name="stopType" val="duration (s)" valType="str" updates="None"/>\u000a        <Param name="startVal" val="0.0" valType="code" updates="None"/>\u000a        <Param name="font" val="Arial" valType="str" updates="constant"/>\u000a        <Param name="letterHeight" val="0.1" valType="code" updates="constant"/>\u000a      </TextComponent>\u000a    </Routine>\u000a    <Routine name="introduction">\u000a      <TextComponent name="intro_text">\u000a        <Param name="opacity" val="1" valType="code" updates="constant"/>\u000a        <Param name="colorSpace" val="rgb" valType="str" updates="constant"/>\u000a        <Param name="name" val="intro_text" valType="code" updates="None"/>\u000a        <Param name="wrapWidth" val="" valType="code" updates="constant"/>\u000a        <Param name="color" val="white" valType="str" updates="constant"/>\u000a        <Param name="text" val="Welcome to Stroop Task - Short Paradigm!" valType="str" updates="constant"/>\u000a        <Param name="stopVal" val="" valType="code" updates="constant"/>\u000a        <Param name="durationEstim" val="" valType="code" updates="None"/>\u000a        <Param name="pos" val="[0, 0]" valType="code" updates="constant"/>\u000a        <Param name="flip" val="" valType="str" updates="constant"/>\u000a        <Param name="startEstim" val="" valType="code" updates="None"/>\u000a        <Param name="units" val="from exp settings" valType="str" updates="None"/>\u000a        <Param name="startType" val="time (s)" valType="str" updates="None"/>\u000a        <Param name="ori" val="0" valType="code" updates="constant"/>\u000a        <Param name="stopType" val="duration (s)" valType="str" updates="None"/>\u000a        <Param name="startVal" val="0.0" valType="code" updates="None"/>\u000a        <Param name="font" val="Arial" valType="str" updates="constant"/>\u000a        <Param name="letterHeight" val="0.1" valType="code" updates="constant"/>\u000a      </TextComponent>\u000a      <KeyboardComponent name="key_resp_3">\u000a        <Param name="correctAns" val="" valType="str" updates="constant"/>\u000a        <Param name="storeCorrect" val="False" valType="bool" updates="constant"/>\u000a        <Param name="name" val="key_resp_3" valType="code" updates="None"/>\u000a        <Param name="stopVal" val="" valType="code" updates="constant"/>\u000a        <Param name="durationEstim" val="" valType="code" updates="None"/>\u000a        <Param name="forceEndRoutine" val="True" valType="bool" updates="constant"/>\u000a        <Param name="startEstim" val="" valType="code" updates="None"/>\u000a        <Param name="discard previous" val="True" valType="bool" updates="constant"/>\u000a        <Param name="startType" val="time (s)" valType="str" updates="None"/>\u000a        <Param name="allowedKeys" val="'space'" valType="code" updates="constant"/>\u000a        <Param name="stopType" val="duration (s)" valType="str" updates="None"/>\u000a        <Param name="startVal" val="1" valType="code" updates="None"/>\u000a        <Param name="store" val="last key" valType="str" updates="constant"/>\u000a      </KeyboardComponent>\u000a    </Routine>\u000a    <Routine name="instruction">\u000a      <TextComponent name="text">\u000a        <Param name="opacity" val="1" valType="code" updates="constant"/>\u000a        <Param name="colorSpace" val="rgb" valType="str" updates="constant"/>\u000a        <Param name="name" val="text" valType="code" updates="None"/>\u000a        <Param name="wrapWidth" val="" valType="code" updates="constant"/>\u000a        <Param name="color" val="white" valType="str" updates="constant"/>\u000a        <Param name="text" val="INSTRUCTIONS&#10;&#10;Indicate the color of the words&#10;Red: &quot;z&quot;   &#10;Yellow: &quot;x&quot;&#10;Green: &quot;n&quot;&#10;Blue: &quot;m&quot;&#10;&#10;Please give quick and exact answer&#10;&#10;(Press Space to start)" valType="str" updates="constant"/>\u000a        <Param name="stopVal" val="" valType="code" updates="constant"/>\u000a        <Param name="durationEstim" val="" valType="code" updates="None"/>\u000a        <Param name="pos" val="[0, 0]" valType="code" updates="constant"/>\u000a        <Param name="flip" val="" valType="str" updates="constant"/>\u000a        <Param name="startEstim" val="" valType="code" updates="None"/>\u000a        <Param name="units" val="from exp settings" valType="str" updates="None"/>\u000a        <Param name="startType" val="time (s)" valType="str" updates="None"/>\u000a        <Param name="ori" val="0" valType="code" updates="constant"/>\u000a        <Param name="stopType" val="duration (s)" valType="str" updates="None"/>\u000a        <Param name="startVal" val="0.0" valType="code" updates="None"/>\u000a        <Param name="font" val="Arial" valType="str" updates="constant"/>\u000a        <Param name="letterHeight" val="0.1" valType="code" updates="constant"/>\u000a      </TextComponent>\u000a      <KeyboardComponent name="key_resp_2">\u000a        <Param name="correctAns" val="" valType="str" updates="constant"/>\u000a        <Param name="storeCorrect" val="False" valType="bool" updates="constant"/>\u000a        <Param name="name" val="key_resp_2" valType="code" updates="None"/>\u000a        <Param name="stopVal" val="" valType="code" updates="constant"/>\u000a        <Param name="durationEstim" val="" valType="code" updates="None"/>\u000a        <Param name="forceEndRoutine" val="True" valType="bool" updates="constant"/>\u000a        <Param name="startEstim" val="" valType="code" updates="None"/>\u000a        <Param name="discard previous" val="True" valType="bool" updates="constant"/>\u000a        <Param name="startType" val="time (s)" valType="str" updates="None"/>\u000a        <Param name="allowedKeys" val="'space'" valType="code" updates="constant"/>\u000a        <Param name="stopType" val="duration (s)" valType="str" updates="None"/>\u000a        <Param name="startVal" val="1" valType="code" updates="None"/>\u000a        <Param name="store" val="last key" valType="str" updates="constant"/>\u000a      </KeyboardComponent>\u000a    </Routine>\u000a    <Routine name="rest">\u000a      <TextComponent name="rest_text">\u000a        <Param name="opacity" val="1" valType="code" updates="constant"/>\u000a        <Param name="colorSpace" val="rgb" valType="str" updates="constant"/>\u000a        <Param name="name" val="rest_text" valType="code" updates="None"/>\u000a        <Param name="wrapWidth" val="" valType="code" updates="constant"/>\u000a        <Param name="color" val="white" valType="str" updates="constant"/>\u000a        <Param name="text" val="+" valType="str" updates="set every repeat"/>\u000a        <Param name="stopVal" val="60" valType="code" updates="constant"/>\u000a        <Param name="durationEstim" val="" valType="code" updates="None"/>\u000a        <Param name="pos" val="[0, 0]" valType="code" updates="constant"/>\u000a        <Param name="flip" val="" valType="str" updates="constant"/>\u000a        <Param name="startEstim" val="" valType="code" updates="None"/>\u000a        <Param name="units" val="from exp settings" valType="str" updates="None"/>\u000a        <Param name="startType" val="time (s)" valType="str" updates="None"/>\u000a        <Param name="ori" val="0" valType="code" updates="constant"/>\u000a        <Param name="stopType" val="duration (s)" valType="str" updates="None"/>\u000a        <Param name="startVal" val="0.0" valType="code" updates="None"/>\u000a        <Param name="font" val="Arial" valType="str" updates="constant"/>\u000a        <Param name="letterHeight" val="0.1" valType="code" updates="constant"/>\u000a      </TextComponent>\u000a      <KeyboardComponent name="key_resp_8">\u000a        <Param name="correctAns" val="" valType="str" updates="constant"/>\u000a        <Param name="storeCorrect" val="False" valType="bool" updates="constant"/>\u000a        <Param name="name" val="key_resp_8" valType="code" updates="None"/>\u000a        <Param name="stopVal" val="60" valType="code" updates="constant"/>\u000a        <Param name="durationEstim" val="" valType="code" updates="None"/>\u000a        <Param name="forceEndRoutine" val="False" valType="bool" updates="constant"/>\u000a        <Param name="startEstim" val="" valType="code" updates="None"/>\u000a        <Param name="discard previous" val="True" valType="bool" updates="constant"/>\u000a        <Param name="startType" val="time (s)" valType="str" updates="None"/>\u000a        <Param name="allowedKeys" val="'space'" valType="code" updates="constant"/>\u000a        <Param name="stopType" val="duration (s)" valType="str" updates="None"/>\u000a        <Param name="startVal" val="0.0" valType="code" updates="None"/>\u000a        <Param name="store" val="last key" valType="str" updates="constant"/>\u000a      </KeyboardComponent>\u000a    </Routine>\u000a    <Routine name="ending">\u000a      <TextComponent name="ending_text">\u000a        <Param name="opacity" val="1" valType="code" updates="constant"/>\u000a        <Param name="colorSpace" val="rgb" valType="str" updates="constant"/>\u000a        <Param name="name" val="ending_text" valType="code" updates="None"/>\u000a        <Param name="wrapWidth" val="" valType="code" updates="constant"/>\u000a        <Param name="color" val="white" valType="str" updates="constant"/>\u000a        <Param name="text" val="Thank you for your participation :)" valType="str" updates="constant"/>\u000a        <Param name="stopVal" val="10" valType="code" updates="constant"/>\u000a        <Param name="durationEstim" val="" valType="code" updates="None"/>\u000a        <Param name="pos" val="[0, 0]" valType="code" updates="constant"/>\u000a        <Param name="flip" val="" valType="str" updates="constant"/>\u000a        <Param name="startEstim" val="" valType="code" updates="None"/>\u000a        <Param name="units" val="from exp settings" valType="str" updates="None"/>\u000a        <Param name="startType" val="time (s)" valType="str" updates="None"/>\u000a        <Param name="ori" val="0" valType="code" updates="constant"/>\u000a        <Param name="stopType" val="duration (s)" valType="str" updates="None"/>\u000a        <Param name="startVal" val="0.0" valType="code" updates="None"/>\u000a        <Param name="font" val="Arial" valType="str" updates="constant"/>\u000a        <Param name="letterHeight" val="0.1" valType="code" updates="constant"/>\u000a      </TextComponent>\u000a      <KeyboardComponent name="key_resp_9">\u000a        <Param name="correctAns" val="" valType="str" updates="constant"/>\u000a        <Param name="storeCorrect" val="False" valType="bool" updates="constant"/>\u000a        <Param name="name" val="key_resp_9" valType="code" updates="None"/>\u000a        <Param name="stopVal" val="" valType="code" updates="constant"/>\u000a        <Param name="durationEstim" val="" valType="code" updates="None"/>\u000a        <Param name="forceEndRoutine" val="True" valType="bool" updates="constant"/>\u000a        <Param name="startEstim" val="" valType="code" updates="None"/>\u000a        <Param name="discard previous" val="True" valType="bool" updates="constant"/>\u000a        <Param name="startType" val="time (s)" valType="str" updates="None"/>\u000a        <Param name="allowedKeys" val="'y','n','left','right','space'" valType="code" updates="constant"/>\u000a        <Param name="stopType" val="duration (s)" valType="str" updates="None"/>\u000a        <Param name="startVal" val="1" valType="code" updates="None"/>\u000a        <Param name="store" val="last key" valType="str" updates="constant"/>\u000a      </KeyboardComponent>\u000a    </Routine>\u000a    <Routine name="trial">\u000a      <StaticComponent name="ISI">\u000a        <Param name="code" val="" valType="code" updates="None"/>\u000a        <Param name="name" val="ISI" valType="code" updates="None"/>\u000a        <Param name="stopVal" val="0.5" valType="code" updates="constant"/>\u000a        <Param name="durationEstim" val="" valType="code" updates="None"/>\u000a        <Param name="startEstim" val="" valType="code" updates="None"/>\u000a        <Param name="startType" val="time (s)" valType="str" updates="None"/>\u000a        <Param name="stopType" val="duration (s)" valType="str" updates="None"/>\u000a        <Param name="startVal" val="0.0" valType="code" updates="None"/>\u000a      </StaticComponent>\u000a      <TextComponent name="trial_text">\u000a        <Param name="opacity" val="1" valType="code" updates="constant"/>\u000a        <Param name="colorSpace" val="rgb" valType="str" updates="constant"/>\u000a        <Param name="name" val="trial_text" valType="code" updates="None"/>\u000a        <Param name="wrapWidth" val="" valType="code" updates="constant"/>\u000a        <Param name="color" val="$color" valType="str" updates="set every repeat"/>\u000a        <Param name="text" val="$word" valType="str" updates="set every repeat"/>\u000a        <Param name="stopVal" val="1.3" valType="code" updates="constant"/>\u000a        <Param name="durationEstim" val="" valType="code" updates="None"/>\u000a        <Param name="pos" val="[0, 0]" valType="code" updates="constant"/>\u000a        <Param name="flip" val="" valType="str" updates="constant"/>\u000a        <Param name="startEstim" val="" valType="code" updates="None"/>\u000a        <Param name="units" val="from exp settings" valType="str" updates="None"/>\u000a        <Param name="startType" val="time (s)" valType="str" updates="None"/>\u000a        <Param name="ori" val="0" valType="code" updates="constant"/>\u000a        <Param name="stopType" val="duration (s)" valType="str" updates="None"/>\u000a        <Param name="startVal" val="0.8" valType="code" updates="None"/>\u000a        <Param name="font" val="Arial" valType="str" updates="constant"/>\u000a        <Param name="letterHeight" val="0.1" valType="code" updates="constant"/>\u000a      </TextComponent>\u000a      <KeyboardComponent name="resp">\u000a        <Param name="correctAns" val="$corrans" valType="str" updates="constant"/>\u000a        <Param name="storeCorrect" val="True" valType="bool" updates="constant"/>\u000a        <Param name="name" val="resp" valType="code" updates="None"/>\u000a        <Param name="stopVal" val="2.2" valType="code" updates="constant"/>\u000a        <Param name="durationEstim" val="" valType="code" updates="None"/>\u000a        <Param name="forceEndRoutine" val="False" valType="bool" updates="constant"/>\u000a        <Param name="startEstim" val="" valType="code" updates="None"/>\u000a        <Param name="discard previous" val="True" valType="bool" updates="constant"/>\u000a        <Param name="startType" val="time (s)" valType="str" updates="None"/>\u000a        <Param name="allowedKeys" val="'z','x','n','m'" valType="code" updates="constant"/>\u000a        <Param name="stopType" val="duration (s)" valType="str" updates="None"/>\u000a        <Param name="startVal" val="0.8" valType="code" updates="None"/>\u000a        <Param name="store" val="last key" valType="str" updates="constant"/>\u000a      </KeyboardComponent>\u000a      <TextComponent name="fixationtrial">\u000a        <Param name="opacity" val="1" valType="code" updates="constant"/>\u000a        <Param name="colorSpace" val="rgb" valType="str" updates="constant"/>\u000a        <Param name="name" val="fixationtrial" valType="code" updates="None"/>\u000a        <Param name="wrapWidth" val="" valType="code" updates="constant"/>\u000a        <Param name="color" val="white" valType="str" updates="constant"/>\u000a        <Param name="text" val="+" valType="str" updates="constant"/>\u000a        <Param name="stopVal" val="0.8" valType="code" updates="constant"/>\u000a        <Param name="durationEstim" val="" valType="code" updates="None"/>\u000a        <Param name="pos" val="[0, 0]" valType="code" updates="constant"/>\u000a        <Param name="flip" val="" valType="str" updates="constant"/>\u000a        <Param name="startEstim" val="" valType="code" updates="None"/>\u000a        <Param name="units" val="from exp settings" valType="str" updates="None"/>\u000a        <Param name="startType" val="time (s)" valType="str" updates="None"/>\u000a        <Param name="ori" val="0" valType="code" updates="constant"/>\u000a        <Param name="stopType" val="duration (s)" valType="str" updates="None"/>\u000a        <Param name="startVal" val="0.0" valType="code" updates="None"/>\u000a        <Param name="font" val="Arial" valType="str" updates="constant"/>\u000a        <Param name="letterHeight" val="0.1" valType="code" updates="constant"/>\u000a      </TextComponent>\u000a    </Routine>\u000a    <Routine name="maintask">\u000a      <TextComponent name="text_2">\u000a        <Param name="opacity" val="1" valType="code" updates="constant"/>\u000a        <Param name="colorSpace" val="rgb" valType="str" updates="constant"/>\u000a        <Param name="name" val="text_2" valType="code" updates="None"/>\u000a        <Param name="wrapWidth" val="" valType="code" updates="constant"/>\u000a        <Param name="color" val="$color" valType="str" updates="set every repeat"/>\u000a        <Param name="text" val="$word" valType="str" updates="set every repeat"/>\u000a        <Param name="stopVal" val="1.3" valType="code" updates="constant"/>\u000a        <Param name="durationEstim" val="" valType="code" updates="None"/>\u000a        <Param name="pos" val="[0, 0]" valType="code" updates="constant"/>\u000a        <Param name="flip" val="" valType="str" updates="constant"/>\u000a        <Param name="startEstim" val="" valType="code" updates="None"/>\u000a        <Param name="units" val="from exp settings" valType="str" updates="None"/>\u000a        <Param name="startType" val="time (s)" valType="str" updates="None"/>\u000a        <Param name="ori" val="0" valType="code" updates="constant"/>\u000a        <Param name="stopType" val="duration (s)" valType="str" updates="None"/>\u000a        <Param name="startVal" val="0.8" valType="code" updates="None"/>\u000a        <Param name="font" val="Arial" valType="str" updates="constant"/>\u000a        <Param name="letterHeight" val="0.1" valType="code" updates="constant"/>\u000a      </TextComponent>\u000a      <TextComponent name="fixationmain">\u000a        <Param name="opacity" val="1" valType="code" updates="constant"/>\u000a        <Param name="colorSpace" val="rgb" valType="str" updates="constant"/>\u000a        <Param name="name" val="fixationmain" valType="code" updates="None"/>\u000a        <Param name="wrapWidth" val="" valType="code" updates="constant"/>\u000a        <Param name="color" val="white" valType="str" updates="constant"/>\u000a        <Param name="text" val="+" valType="str" updates="constant"/>\u000a        <Param name="stopVal" val="0.8" valType="code" updates="constant"/>\u000a        <Param name="durationEstim" val="" valType="code" updates="None"/>\u000a        <Param name="pos" val="[0, 0]" valType="code" updates="constant"/>\u000a        <Param name="flip" val="" valType="str" updates="constant"/>\u000a        <Param name="startEstim" val="" valType="code" updates="None"/>\u000a        <Param name="units" val="from exp settings" valType="str" updates="None"/>\u000a        <Param name="startType" val="time (s)" valType="str" updates="None"/>\u000a        <Param name="ori" val="0" valType="code" updates="constant"/>\u000a        <Param name="stopType" val="duration (s)" valType="str" updates="None"/>\u000a        <Param name="startVal" val="0.0" valType="code" updates="None"/>\u000a        <Param name="font" val="Arial" valType="str" updates="constant"/>\u000a        <Param name="letterHeight" val="0.1" valType="code" updates="constant"/>\u000a      </TextComponent>\u000a      <KeyboardComponent name="key_resp_7">\u000a        <Param name="correctAns" val="$corrans" valType="str" updates="constant"/>\u000a        <Param name="storeCorrect" val="True" valType="bool" updates="constant"/>\u000a        <Param name="name" val="key_resp_7" valType="code" updates="None"/>\u000a        <Param name="stopVal" val="2.2" valType="code" updates="constant"/>\u000a        <Param name="durationEstim" val="" valType="code" updates="None"/>\u000a        <Param name="forceEndRoutine" val="False" valType="bool" updates="constant"/>\u000a        <Param name="startEstim" val="" valType="code" updates="None"/>\u000a        <Param name="discard previous" val="True" valType="bool" updates="constant"/>\u000a        <Param name="startType" val="time (s)" valType="str" updates="None"/>\u000a        <Param name="allowedKeys" val="'z','x','n','m'" valType="code" updates="constant"/>\u000a        <Param name="stopType" val="duration (s)" valType="str" updates="None"/>\u000a        <Param name="startVal" val="0.8" valType="code" updates="None"/>\u000a        <Param name="store" val="last key" valType="str" updates="constant"/>\u000a      </KeyboardComponent>\u000a      <SoundComponent name="sound_1">\u000a        <Param name="sound" val="chopin2.wav" valType="str" updates="constant"/>\u000a        <Param name="volume" val="1" valType="code" updates="constant"/>\u000a        <Param name="name" val="sound_1" valType="code" updates="None"/>\u000a        <Param name="stopVal" val="1.0" valType="code" updates="constant"/>\u000a        <Param name="durationEstim" val="" valType="code" updates="None"/>\u000a        <Param name="startEstim" val="" valType="code" updates="None"/>\u000a        <Param name="startType" val="time (s)" valType="str" updates="None"/>\u000a        <Param name="stopType" val="duration (s)" valType="str" updates="None"/>\u000a        <Param name="startVal" val="0.0" valType="code" updates="None"/>\u000a      </SoundComponent>\u000a    </Routine>\u000a    <Routine name="fixation">\u000a      <TextComponent name="text_3">\u000a        <Param name="opacity" val="1" valType="code" updates="constant"/>\u000a        <Param name="colorSpace" val="rgb" valType="str" updates="constant"/>\u000a        <Param name="name" val="text_3" valType="code" updates="None"/>\u000a        <Param name="wrapWidth" val="" valType="code" updates="constant"/>\u000a        <Param name="color" val="white" valType="str" updates="constant"/>\u000a        <Param name="text" val="+" valType="str" updates="constant"/>\u000a        <Param name="stopVal" val="0.8" valType="code" updates="constant"/>\u000a        <Param name="durationEstim" val="" valType="code" updates="None"/>\u000a        <Param name="pos" val="[0, 0]" valType="code" updates="constant"/>\u000a        <Param name="flip" val="" valType="str" updates="constant"/>\u000a        <Param name="startEstim" val="" valType="code" updates="None"/>\u000a        <Param name="units" val="from exp settings" valType="str" updates="None"/>\u000a        <Param name="startType" val="time (s)" valType="str" updates="None"/>\u000a        <Param name="ori" val="0" valType="code" updates="constant"/>\u000a        <Param name="stopType" val="duration (s)" valType="str" updates="None"/>\u000a        <Param name="startVal" val="0.0" valType="code" updates="None"/>\u000a        <Param name="font" val="Arial" valType="str" updates="constant"/>\u000a        <Param name="letterHeight" val="0.1" valType="code" updates="constant"/>\u000a      </TextComponent>\u000a      <KeyboardComponent name="key_resp_5">\u000a        <Param name="correctAns" val="$corrans" valType="str" updates="constant"/>\u000a        <Param name="storeCorrect" val="True" valType="bool" updates="constant"/>\u000a        <Param name="name" val="key_resp_5" valType="code" updates="None"/>\u000a        <Param name="stopVal" val="" valType="code" updates="constant"/>\u000a        <Param name="durationEstim" val="" valType="code" updates="None"/>\u000a        <Param name="forceEndRoutine" val="True" valType="bool" updates="constant"/>\u000a        <Param name="startEstim" val="" valType="code" updates="None"/>\u000a        <Param name="discard previous" val="True" valType="bool" updates="constant"/>\u000a        <Param name="startType" val="time (s)" valType="str" updates="None"/>\u000a        <Param name="allowedKeys" val="'z','x','n','m'" valType="code" updates="constant"/>\u000a        <Param name="stopType" val="duration (s)" valType="str" updates="None"/>\u000a        <Param name="startVal" val="0.8" valType="code" updates="None"/>\u000a        <Param name="store" val="last key" valType="str" updates="constant"/>\u000a      </KeyboardComponent>\u000a    </Routine>\u000a    <Routine name="instruction2">\u000a      <TextComponent name="instruction2_text">\u000a        <Param name="opacity" val="1" valType="code" updates="constant"/>\u000a        <Param name="colorSpace" val="rgb" valType="str" updates="constant"/>\u000a        <Param name="name" val="instruction2_text" valType="code" updates="None"/>\u000a        <Param name="wrapWidth" val="" valType="code" updates="constant"/>\u000a        <Param name="color" val="white" valType="str" updates="constant"/>\u000a        <Param name="text" val="Are you ready ?&#10;&#10;You have 3s for each word" valType="str" updates="constant"/>\u000a        <Param name="stopVal" val="" valType="code" updates="constant"/>\u000a        <Param name="durationEstim" val="" valType="code" updates="None"/>\u000a        <Param name="pos" val="[0, 0]" valType="code" updates="constant"/>\u000a        <Param name="flip" val="" valType="str" updates="constant"/>\u000a        <Param name="startEstim" val="" valType="code" updates="None"/>\u000a        <Param name="units" val="from exp settings" valType="str" updates="None"/>\u000a        <Param name="startType" val="time (s)" valType="str" updates="None"/>\u000a        <Param name="ori" val="0" valType="code" updates="constant"/>\u000a        <Param name="stopType" val="duration (s)" valType="str" updates="None"/>\u000a        <Param name="startVal" val="0.0" valType="code" updates="None"/>\u000a        <Param name="font" val="Arial" valType="str" updates="constant"/>\u000a        <Param name="letterHeight" val="0.1" valType="code" updates="constant"/>\u000a      </TextComponent>\u000a      <KeyboardComponent name="key_resp_4">\u000a        <Param name="correctAns" val="" valType="str" updates="constant"/>\u000a        <Param name="storeCorrect" val="False" valType="bool" updates="constant"/>\u000a        <Param name="name" val="key_resp_4" valType="code" updates="None"/>\u000a        <Param name="stopVal" val="" valType="code" updates="constant"/>\u000a        <Param name="durationEstim" val="" valType="code" updates="None"/>\u000a        <Param name="forceEndRoutine" val="True" valType="bool" updates="constant"/>\u000a        <Param name="startEstim" val="" valType="code" updates="None"/>\u000a        <Param name="discard previous" val="True" valType="bool" updates="constant"/>\u000a        <Param name="startType" val="time (s)" valType="str" updates="None"/>\u000a        <Param name="allowedKeys" val="'space'" valType="code" updates="constant"/>\u000a        <Param name="stopType" val="duration (s)" valType="str" updates="None"/>\u000a        <Param name="startVal" val="1" valType="code" updates="None"/>\u000a        <Param name="store" val="last key" valType="str" updates="constant"/>\u000a      </KeyboardComponent>\u000a    </Routine>\u000a  </Routines>\u000a  <Flow>\u000a    <Routine name="introduction"/>\u000a    <Routine name="instruction"/>\u000a    <Routine name="instruction2"/>\u000a    <Routine name="rest"/>\u000a    <LoopInitiator loopType="TrialHandler" name="inverse1">\u000a      <Param name="conditionsFile" val="Stroopmain-short-in-10event x 4.xlsx" valType="str" updates="None"/>\u000a      <Param name="name" val="inverse1" valType="code" updates="None"/>\u000a      <Param name="isTrials" val="True" valType="bool" updates="None"/>\u000a      <Param name="random seed" val="" valType="code" updates="None"/>\u000a      <Param name="loopType" val="sequential" valType="str" updates="None"/>\u000a      <Param name="nReps" val="1" valType="code" updates="None"/>\u000a      <Param name="endPoints" val="[0, 1]" valType="num" updates="None"/>\u000a      <Param name="conditions" val="[{u'color': u'RED', u'congruent': 0, u'word': u'YELLOW', u'corrans': u'z'}, {u'color': u'RED', u'congruent': 1, u'word': u'RED', u'corrans': u'z'}, {u'color': u'BLUE', u'congruent': 0, u'word': u'GREEN', u'corrans': u'z'}, {u'color': u'YELLOW', u'congruent': 0, u'word': u'RED', u'corrans': u'z'}, {u'color': u'GREEN', u'congruent': 0, u'word': u'RED', u'corrans': u'n'}, {u'color': u'RED', u'congruent': 0, u'word': u'BLUE', u'corrans': u'z'}, {u'color': u'GREEN', u'congruent': 0, u'word': u'YELLOW', u'corrans': u'n'}, {u'color': u'YELLOW', u'congruent': 0, u'word': u'BLUE', u'corrans': u'x'}, {u'color': u'GREEN', u'congruent': 0, u'word': u'BLUE', u'corrans': u'n'}, {u'color': u'RED', u'congruent': 0, u'word': u'GREEN', u'corrans': u'z'}, {u'color': u'YELLOW', u'congruent': 0, u'word': u'BLUE', u'corrans': u'x'}, {u'color': u'RED', u'congruent': 0, u'word': u'RED', u'corrans': u'z'}, {u'color': u'BLUE', u'congruent': 1, u'word': u'BLUE', u'corrans': u'm'}, {u'color': u'GREEN', u'congruent': 0, u'word': u'RED', u'corrans': u'n'}, {u'color': u'BLUE', u'congruent': 0, u'word': u'RED', u'corrans': u'm'}, {u'color': u'BLUE', u'congruent': 0, u'word': u'GREEN', u'corrans': u'm'}, {u'color': u'YELLOW', u'congruent': 0, u'word': u'GREEN', u'corrans': u'x'}, {u'color': u'RED', u'congruent': 0, u'word': u'YELLOW', u'corrans': u'z'}, {u'color': u'RED', u'congruent': 0, u'word': u'BLUE', u'corrans': u'z'}, {u'color': u'GREEN', u'congruent': 0, u'word': u'RED', u'corrans': u'm'}, {u'color': u'BLUE', u'congruent': 0, u'word': u'GREEN', u'corrans': u'm'}, {u'color': u'RED', u'congruent': 0, u'word': u'YELLOW', u'corrans': u'z'}, {u'color': u'GREEN', u'congruent': 0, u'word': u'BLUE', u'corrans': u'n'}, {u'color': u'YELLOW', u'congruent': 1, u'word': u'YELLOW', u'corrans': u'x'}, {u'color': u'RED', u'congruent': 0, u'word': u'BLUE', u'corrans': u'z'}, {u'color': u'GREEN', u'congruent': 0, u'word': u'RED', u'corrans': u'n'}, {u'color': u'BLUE', u'congruent': 0, u'word': u'GREEN', u'corrans': u'm'}, {u'color': u'YELLOW', u'congruent': 0, u'word': u'GREEN', u'corrans': u'x'}, {u'color': u'GREEN', u'congruent': 0, u'word': u'YELLOW', u'corrans': u'n'}, {u'color': u'RED', u'congruent': 0, u'word': u'YELLOW', u'corrans': u'z'}, {u'color': u'YELLOW', u'congruent': 0, u'word': u'GREEN', u'corrans': u'x'}, {u'color': u'BLUE', u'congruent': 0, u'word': u'YELLOW', u'corrans': u'm'}, {u'color': u'BLUE', u'congruent': 0, u'word': u'RED', u'corrans': u'm'}, {u'color': u'YELLOW', u'congruent': 0, u'word': u'GREEN', u'corrans': u'x'}, {u'color': u'GREEN', u'congruent': 1, u'word': u'GREEN', u'corrans': u'n'}, {u'color': u'GREEN', u'congruent': 0, u'word': u'RED', u'corrans': u'n'}, {u'color': u'BLUE', u'congruent': 0, u'word': u'GREEN', u'corrans': u'm'}, {u'color': u'BLUE', u'congruent': 0, u'word': u'YELLOW', u'corrans': u'm'}, {u'color': u'YELLOW', u'congruent': 0, u'word': u'GREEN', u'corrans': u'x'}, {u'color': u'RED', u'congruent': 0, u'word': u'BLUE', u'corrans': u'z'}]" valType="str" updates="None"/>\u000a      <Param name="Selected rows" val="" valType="str" updates="None"/>\u000a    </LoopInitiator>\u000a    <Routine name="maintask"/>\u000a    <LoopTerminator name="inverse1"/>\u000a    <Routine name="rest"/>\u000a    <LoopInitiator loopType="TrialHandler" name="conven1">\u000a      <Param name="conditionsFile" val="Stroopmain-short-con-10event x 4.xlsx" valType="str" updates="None"/>\u000a      <Param name="name" val="conven1" valType="code" updates="None"/>\u000a      <Param name="isTrials" val="True" valType="bool" updates="None"/>\u000a      <Param name="random seed" val="" valType="code" updates="None"/>\u000a      <Param name="loopType" val="random" valType="str" updates="None"/>\u000a      <Param name="nReps" val="1" valType="code" updates="None"/>\u000a      <Param name="endPoints" val="[0, 1]" valType="num" updates="None"/>\u000a      <Param name="conditions" val="[{u'color': u'RED', u'congruent': 1, u'word': u'RED', u'corrans': u'z'}, {u'color': u'RED', u'congruent': 0, u'word': u'GREEN', u'corrans': u'z'}, {u'color': u'BLUE', u'congruent': 1, u'word': u'BLUE', u'corrans': u'z'}, {u'color': u'YELLOW', u'congruent': 1, u'word': u'YELLOW', u'corrans': u'z'}, {u'color': u'GREEN', u'congruent': 1, u'word': u'GREEN', u'corrans': u'n'}, {u'color': u'RED', u'congruent': 1, u'word': u'RED', u'corrans': u'z'}, {u'color': u'GREEN', u'congruent': 1, u'word': u'GREEN', u'corrans': u'n'}, {u'color': u'YELLOW', u'congruent': 1, u'word': u'YELLOW', u'corrans': u'x'}, {u'color': u'RED', u'congruent': 1, u'word': u'RED', u'corrans': u'z'}, {u'color': u'GREEN', u'congruent': 1, u'word': u'GREEN', u'corrans': u'n'}, {u'color': u'YELLOW', u'congruent': 1, u'word': u'YELLOW', u'corrans': u'x'}, {u'color': u'RED', u'congruent': 1, u'word': u'RED', u'corrans': u'z'}, {u'color': u'BLUE', u'congruent': 0, u'word': u'GREEN', u'corrans': u'm'}, {u'color': u'GREEN', u'congruent': 1, u'word': u'GREEN', u'corrans': u'n'}, {u'color': u'BLUE', u'congruent': 1, u'word': u'BLUE', u'corrans': u'm'}, {u'color': u'BLUE', u'congruent': 1, u'word': u'BLUE', u'corrans': u'm'}, {u'color': u'YELLOW', u'congruent': 1, u'word': u'YELLOW', u'corrans': u'x'}, {u'color': u'RED', u'congruent': 1, u'word': u'RED', u'corrans': u'z'}, {u'color': u'RED', u'congruent': 1, u'word': u'RED', u'corrans': u'z'}, {u'color': u'BLUE', u'congruent': 1, u'word': u'BLUE', u'corrans': u'm'}, {u'color': u'BLUE', u'congruent': 1, u'word': u'BLUE', u'corrans': u'm'}, {u'color': u'RED', u'congruent': 1, u'word': u'RED', u'corrans': u'z'}, {u'color': u'GREEN', u'congruent': 1, u'word': u'GREEN', u'corrans': u'n'}, {u'color': u'YELLOW', u'congruent': 0, u'word': u'RED', u'corrans': u'x'}, {u'color': u'RED', u'congruent': 1, u'word': u'RED', u'corrans': u'z'}, {u'color': u'GREEN', u'congruent': 1, u'word': u'GREEN', u'corrans': u'n'}, {u'color': u'BLUE', u'congruent': 1, u'word': u'BLUE', u'corrans': u'm'}, {u'color': u'YELLOW', u'congruent': 1, u'word': u'YELLOW', u'corrans': u'x'}, {u'color': u'GREEN', u'congruent': 1, u'word': u'GREEN', u'corrans': u'n'}, {u'color': u'RED', u'congruent': 1, u'word': u'RED', u'corrans': u'z'}, {u'color': u'YELLOW', u'congruent': 1, u'word': u'YELLOW', u'corrans': u'x'}, {u'color': u'BLUE', u'congruent': 1, u'word': u'BLUE', u'corrans': u'm'}, {u'color': u'BLUE', u'congruent': 1, u'word': u'BLUE', u'corrans': u'm'}, {u'color': u'YELLOW', u'congruent': 1, u'word': u'YELLOW', u'corrans': u'x'}, {u'color': u'GREEN', u'congruent': 0, u'word': u'BLUE', u'corrans': u'n'}, {u'color': u'GREEN', u'congruent': 1, u'word': u'GREEN', u'corrans': u'n'}, {u'color': u'BLUE', u'congruent': 1, u'word': u'BLUE', u'corrans': u'm'}, {u'color': u'BLUE', u'congruent': 1, u'word': u'BLUE', u'corrans': u'm'}, {u'color': u'YELLOW', u'congruent': 1, u'word': u'YELLOW', u'corrans': u'x'}, {u'color': u'GREEN', u'congruent': 1, u'word': u'GREEN', u'corrans': u'n'}]" valType="str" updates="None"/>\u000a      <Param name="Selected rows" val="" valType="str" updates="None"/>\u000a    </LoopInitiator>\u000a    <Routine name="maintask"/>\u000a    <LoopTerminator name="conven1"/>\u000a    <Routine name="rest"/>\u000a    <LoopInitiator loopType="TrialHandler" name="inverse2">\u000a      <Param name="conditionsFile" val="Stroopmain-short-in-10event x 4.xlsx" valType="str" updates="None"/>\u000a      <Param name="name" val="inverse2" valType="code" updates="None"/>\u000a      <Param name="isTrials" val="True" valType="bool" updates="None"/>\u000a      <Param name="random seed" val="" valType="code" updates="None"/>\u000a      <Param name="loopType" val="random" valType="str" updates="None"/>\u000a      <Param name="nReps" val="1" valType="code" updates="None"/>\u000a      <Param name="endPoints" val="[0, 1]" valType="num" updates="None"/>\u000a      <Param name="conditions" val="[{u'color': u'RED', u'congruent': 0, u'word': u'YELLOW', u'corrans': u'z'}, {u'color': u'RED', u'congruent': 1, u'word': u'RED', u'corrans': u'z'}, {u'color': u'BLUE', u'congruent': 0, u'word': u'GREEN', u'corrans': u'z'}, {u'color': u'YELLOW', u'congruent': 0, u'word': u'RED', u'corrans': u'z'}, {u'color': u'GREEN', u'congruent': 0, u'word': u'RED', u'corrans': u'n'}, {u'color': u'RED', u'congruent': 0, u'word': u'BLUE', u'corrans': u'z'}, {u'color': u'GREEN', u'congruent': 0, u'word': u'YELLOW', u'corrans': u'n'}, {u'color': u'YELLOW', u'congruent': 0, u'word': u'BLUE', u'corrans': u'x'}, {u'color': u'GREEN', u'congruent': 0, u'word': u'BLUE', u'corrans': u'n'}, {u'color': u'RED', u'congruent': 0, u'word': u'GREEN', u'corrans': u'z'}, {u'color': u'YELLOW', u'congruent': 0, u'word': u'BLUE', u'corrans': u'x'}, {u'color': u'RED', u'congruent': 0, u'word': u'RED', u'corrans': u'z'}, {u'color': u'BLUE', u'congruent': 1, u'word': u'BLUE', u'corrans': u'm'}, {u'color': u'GREEN', u'congruent': 0, u'word': u'RED', u'corrans': u'n'}, {u'color': u'BLUE', u'congruent': 0, u'word': u'RED', u'corrans': u'm'}, {u'color': u'BLUE', u'congruent': 0, u'word': u'GREEN', u'corrans': u'm'}, {u'color': u'YELLOW', u'congruent': 0, u'word': u'GREEN', u'corrans': u'x'}, {u'color': u'RED', u'congruent': 0, u'word': u'YELLOW', u'corrans': u'z'}, {u'color': u'RED', u'congruent': 0, u'word': u'BLUE', u'corrans': u'z'}, {u'color': u'GREEN', u'congruent': 0, u'word': u'RED', u'corrans': u'm'}, {u'color': u'BLUE', u'congruent': 0, u'word': u'GREEN', u'corrans': u'm'}, {u'color': u'RED', u'congruent': 0, u'word': u'YELLOW', u'corrans': u'z'}, {u'color': u'GREEN', u'congruent': 0, u'word': u'BLUE', u'corrans': u'n'}, {u'color': u'YELLOW', u'congruent': 1, u'word': u'YELLOW', u'corrans': u'x'}, {u'color': u'RED', u'congruent': 0, u'word': u'BLUE', u'corrans': u'z'}, {u'color': u'GREEN', u'congruent': 0, u'word': u'RED', u'corrans': u'n'}, {u'color': u'BLUE', u'congruent': 0, u'word': u'GREEN', u'corrans': u'm'}, {u'color': u'YELLOW', u'congruent': 0, u'word': u'GREEN', u'corrans': u'x'}, {u'color': u'GREEN', u'congruent': 0, u'word': u'YELLOW', u'corrans': u'n'}, {u'color': u'RED', u'congruent': 0, u'word': u'YELLOW', u'corrans': u'z'}, {u'color': u'YELLOW', u'congruent': 0, u'word': u'GREEN', u'corrans': u'x'}, {u'color': u'BLUE', u'congruent': 0, u'word': u'YELLOW', u'corrans': u'm'}, {u'color': u'BLUE', u'congruent': 0, u'word': u'RED', u'corrans': u'm'}, {u'color': u'YELLOW', u'congruent': 0, u'word': u'GREEN', u'corrans': u'x'}, {u'color': u'GREEN', u'congruent': 1, u'word': u'GREEN', u'corrans': u'n'}, {u'color': u'GREEN', u'congruent': 0, u'word': u'RED', u'corrans': u'n'}, {u'color': u'BLUE', u'congruent': 0, u'word': u'GREEN', u'corrans': u'm'}, {u'color': u'BLUE', u'congruent': 0, u'word': u'YELLOW', u'corrans': u'm'}, {u'color': u'YELLOW', u'congruent': 0, u'word': u'GREEN', u'corrans': u'x'}, {u'color': u'RED', u'congruent': 0, u'word': u'BLUE', u'corrans': u'z'}]" valType="str" updates="None"/>\u000a      <Param name="Selected rows" val="" valType="str" updates="None"/>\u000a    </LoopInitiator>\u000a    <Routine name="maintask"/>\u000a    <LoopTerminator name="inverse2"/>\u000a    <Routine name="rest"/>\u000a    <Routine name="ending"/>\u000a  </Flow>\u000a</PsychoPy2experiment>\u000a
p815
sS'thisTrial'
p816
(lp817
sS'_exp'
p818
I155060432
sg11
S'inverse1'
p819
sg6
g7
sS'thisRepN'
p820
I1
sg27
I01
sg28
g29
sS'data'
p821
g1
(cpsychopy.data
DataHandler
p822
c__builtin__
dict
p823
(dp824
S'ran'
p825
cnumpy.ma.core
_mareconstruct
p826
(cnumpy.ma.core
MaskedArray
p827
cnumpy
ndarray
p828
(I0
tp829
S'b'
tRp830
(I1
(I40
I1
tg34
(S'f4'
I0
I1
tRp831
(I3
S'<'
NNNI-1
I-1
I0
tbI00
S'\x00\x00\x80?\x00\x00\x80?\x00\x00\x80?\x00\x00\x80?\x00\x00\x80?\x00\x00\x80?\x00\x00\x80?\x00\x00\x80?\x00\x00\x80?\x00\x00\x80?\x00\x00\x80?\x00\x00\x80?\x00\x00\x80?\x00\x00\x80?\x00\x00\x80?\x00\x00\x80?\x00\x00\x80?\x00\x00\x80?\x00\x00\x80?\x00\x00\x80?\x00\x00\x80?\x00\x00\x80?\x00\x00\x80?\x00\x00\x80?\x00\x00\x80?\x00\x00\x80?\x00\x00\x80?\x00\x00\x80?\x00\x00\x80?\x00\x00\x80?\x00\x00\x80?\x00\x00\x80?\x00\x00\x80?\x00\x00\x80?\x00\x00\x80?\x00\x00\x80?\x00\x00\x80?\x00\x00\x80?\x00\x00\x80?\x00\x00\x80?'
S'\x00\x00\x00\x00\x00\x00\x00\x00\x00\x00\x00\x00\x00\x00\x00\x00\x00\x00\x00\x00\x00\x00\x00\x00\x00\x00\x00\x00\x00\x00\x00\x00\x00\x00\x00\x00\x00\x00\x00\x00'
Ntbsg24
g826
(g827
g828
g829
S'b'
tRp832
(I1
(I40
I1
tg831
I00
S'a\xfa\x7f?%\xd7\xdd>X53?\xe5\xf7??\xdf\xd6L?Ql7?\xe0\xfa\x9f?\xa6\xc2L?\x9e\xec\x8e?BFD?n\xf6.?D\x91Y?H\xed\x8e?\xa4\xb5j?\xe4\xe3\x1d?\xad\x98\x19?\xfe\xe7n?\x9cY\x15?\x90\xd4]?{SU?8\xd2\x9d?\xcfX\x15?).3?\x19w7?*\xa4*?=\xec\x8e?\xe7(s?\x84\xe6n?\xf0\x1b\xa2?|03?_k&?N\x82H?i43?\xc9\xb9;?\x8a\x1fb?mOU??bf?\x12AD?\xa5\x98Y?\x13\x90Y?'
S'\x00\x00\x00\x00\x00\x00\x00\x00\x00\x00\x00\x00\x00\x00\x00\x00\x00\x00\x00\x00\x00\x00\x00\x00\x00\x00\x00\x00\x00\x00\x00\x00\x00\x00\x00\x00\x00\x00\x00\x00'
Ntbsg22
g826
(g827
g828
g829
S'b'
tRp833
(I1
(I40
I1
tg34
(S'O4'
I0
I1
tRp834
(I3
S'|'
NNNI-1
I-1
I63
tbI00
S'\x08\xd6>\tH\xd8>\tp\xca>\tx\xd5>\tH\xd5>\t\xa8\xd5>\t \xd3>\t\x08\xd3>\t\x90\xd2>\t0\xd2>\t\xd8\xd5>\t \xd6>\t\x18\xd5>\t0\x8e\x9e\t\xe8\x8d\x9e\t\xa0\x8d\x9e\tX\x8d\x9e\t\x10\x8d\x9e\tH\x8b\x9e\t\xe0\x8c\x9e\t\x98\x8c\x9e\t\x88\x8a\x9e\t\xc8\x86\x9e\t\x00\x88\x9e\t\x10\x8a\x9e\t0\x8b\x9e\t\xa8\x85\x9e\tX\x8a\x9e\t(\x8d\x9e\t\xf8\x89\x9e\t\x90\x88\x9e\tx\x85\x9e\t\xa8\x88\x9e\t \x89\x9e\t\xd8\x88\x9e\tH\x88\x9e\tX\x87\x9e\t(\x8a\x9e\t\x88\x87\x9e\t\xa0\x87\x9e\t'
S'\x00\x00\x00\x00\x00\x00\x00\x00\x00\x00\x00\x00\x00\x00\x00\x00\x00\x00\x00\x00\x00\x00\x00\x00\x00\x00\x00\x00\x00\x00\x00\x00\x00\x00\x00\x00\x00\x00\x00\x00'
NtbsS'order'
p835
g826
(g827
g828
g829
S'b'
tRp836
(I1
(I40
I1
tg831
I00
S'\x00\x00\x00\x00\x00\x00\x80?\x00\x00\x00@\x00\x00@@\x00\x00\x80@\x00\x00\xa0@\x00\x00\xc0@\x00\x00\xe0@\x00\x00\x00A\x00\x00\x10A\x00\x00 A\x00\x000A\x00\x00@A\x00\x00PA\x00\x00`A\x00\x00pA\x00\x00\x80A\x00\x00\x88A\x00\x00\x90A\x00\x00\x98A\x00\x00\xa0A\x00\x00\xa8A\x00\x00\xb0A\x00\x00\xb8A\x00\x00\xc0A\x00\x00\xc8A\x00\x00\xd0A\x00\x00\xd8A\x00\x00\xe0A\x00\x00\xe8A\x00\x00\xf0A\x00\x00\xf8A\x00\x00\x00B\x00\x00\x04B\x00\x00\x08B\x00\x00\x0cB\x00\x00\x10B\x00\x00\x14B\x00\x00\x18B\x00\x00\x1cB'
S'\x00\x00\x00\x00\x00\x00\x00\x00\x00\x00\x00\x00\x00\x00\x00\x00\x00\x00\x00\x00\x00\x00\x00\x00\x00\x00\x00\x00\x00\x00\x00\x00\x00\x00\x00\x00\x00\x00\x00\x00'
Ntbsg23
g826
(g827
g828
g829
S'b'
tRp837
(I1
(I40
I1
tg831
I00
S'\x00\x00\x80?\x00\x00\x80?\x00\x00\x00\x00\x00\x00\x00\x00\x00\x00\x80?\x00\x00\x80?\x00\x00\x80?\x00\x00\x80?\x00\x00\x00\x00\x00\x00\x80?\x00\x00\x80?\x00\x00\x80?\x00\x00\x80?\x00\x00\x80?\x00\x00\x80?\x00\x00\x80?\x00\x00\x80?\x00\x00\x80?\x00\x00\x80?\x00\x00\x00\x00\x00\x00\x80?\x00\x00\x80?\x00\x00\x80?\x00\x00\x80?\x00\x00\x80?\x00\x00\x80?\x00\x00\x80?\x00\x00\x80?\x00\x00\x80?\x00\x00\x80?\x00\x00\x80?\x00\x00\x80?\x00\x00\x80?\x00\x00\x80?\x00\x00\x00\x00\x00\x00\x80?\x00\x00\x80?\x00\x00\x80?\x00\x00\x80?\x00\x00\x80?'
S'\x00\x00\x00\x00\x00\x00\x00\x00\x00\x00\x00\x00\x00\x00\x00\x00\x00\x00\x00\x00\x00\x00\x00\x00\x00\x00\x00\x00\x00\x00\x00\x00\x00\x00\x00\x00\x00\x00\x00\x00'
NtbstRp838
(dp839
S'isNumeric'
p840
(dp841
g825
I01
sg24
I01
sg23
I01
sg835
I01
sg22
I00
ssS'trials'
p842
g812
sS'dataTypes'
p843
(lp844
g825
ag835
ag22
ag23
ag24
asS'dataShape'
p845
(lp846
I40
aI1
asbsS'method'
p847
S'sequential'
p848
sS'sequenceIndices'
p849
cnumpy.core.multiarray
_reconstruct
p850
(g828
(I0
tS'b'
tRp851
(I1
(I40
I1
tg67
I00
S'\x00\x00\x00\x00\x01\x00\x00\x00\x02\x00\x00\x00\x03\x00\x00\x00\x04\x00\x00\x00\x05\x00\x00\x00\x06\x00\x00\x00\x07\x00\x00\x00\x08\x00\x00\x00\t\x00\x00\x00\n\x00\x00\x00\x0b\x00\x00\x00\x0c\x00\x00\x00\r\x00\x00\x00\x0e\x00\x00\x00\x0f\x00\x00\x00\x10\x00\x00\x00\x11\x00\x00\x00\x12\x00\x00\x00\x13\x00\x00\x00\x14\x00\x00\x00\x15\x00\x00\x00\x16\x00\x00\x00\x17\x00\x00\x00\x18\x00\x00\x00\x19\x00\x00\x00\x1a\x00\x00\x00\x1b\x00\x00\x00\x1c\x00\x00\x00\x1d\x00\x00\x00\x1e\x00\x00\x00\x1f\x00\x00\x00 \x00\x00\x00!\x00\x00\x00"\x00\x00\x00#\x00\x00\x00$\x00\x00\x00%\x00\x00\x00&\x00\x00\x00\'\x00\x00\x00'
tbsS'finished'
p852
I01
sS'nReps'
p853
I1
sS'nRemaining'
p854
I-1
sS'trialList'
p855
(lp856
g1
(cpsychopy.data
TrialType
p857
g823
(dp858
g50
g65
sg51
I0
sg52
g70
sg53
Vz
stRp859
ag1
(g857
g823
(dp860
g50
g65
sg51
I1
sg52
g65
sg53
Vz
stRp861
ag1
(g857
g823
(dp862
g50
g80
sg51
I0
sg52
g84
sg53
Vz
stRp863
ag1
(g857
g823
(dp864
g50
g70
sg51
I0
sg52
g65
sg53
Vz
stRp865
ag1
(g857
g823
(dp866
g50
g84
sg51
I0
sg52
g65
sg53
Vn
stRp867
ag1
(g857
g823
(dp868
g50
g65
sg51
I0
sg52
g80
sg53
Vz
stRp869
ag1
(g857
g823
(dp870
g50
g84
sg51
I0
sg52
g70
sg53
Vn
stRp871
ag1
(g857
g823
(dp872
g50
g70
sg51
I0
sg52
g80
sg53
Vx
stRp873
ag1
(g857
g823
(dp874
g50
g84
sg51
I0
sg52
g80
sg53
Vn
stRp875
ag1
(g857
g823
(dp876
g50
g65
sg51
I0
sg52
g84
sg53
Vz
stRp877
ag1
(g857
g823
(dp878
g50
g70
sg51
I0
sg52
g80
sg53
Vx
stRp879
ag1
(g857
g823
(dp880
g50
g65
sg51
I0
sg52
g65
sg53
Vz
stRp881
ag1
(g857
g823
(dp882
g50
g80
sg51
I1
sg52
g80
sg53
Vm
stRp883
ag1
(g857
g823
(dp884
g50
g84
sg51
I0
sg52
g65
sg53
Vn
stRp885
ag1
(g857
g823
(dp886
g50
g80
sg51
I0
sg52
g65
sg53
Vm
stRp887
ag1
(g857
g823
(dp888
g50
g80
sg51
I0
sg52
g84
sg53
Vm
stRp889
ag1
(g857
g823
(dp890
g50
g70
sg51
I0
sg52
g84
sg53
Vx
stRp891
ag1
(g857
g823
(dp892
g50
g65
sg51
I0
sg52
g70
sg53
Vz
stRp893
ag1
(g857
g823
(dp894
g50
g65
sg51
I0
sg52
g80
sg53
Vz
stRp895
ag1
(g857
g823
(dp896
g50
g84
sg51
I0
sg52
g65
sg53
Vm
stRp897
ag1
(g857
g823
(dp898
g50
g80
sg51
I0
sg52
g84
sg53
Vm
stRp899
ag1
(g857
g823
(dp900
g50
g65
sg51
I0
sg52
g70
sg53
Vz
stRp901
ag1
(g857
g823
(dp902
g50
g84
sg51
I0
sg52
g80
sg53
Vn
stRp903
ag1
(g857
g823
(dp904
g50
g70
sg51
I1
sg52
g70
sg53
Vx
stRp905
ag1
(g857
g823
(dp906
g50
g65
sg51
I0
sg52
g80
sg53
Vz
stRp907
ag1
(g857
g823
(dp908
g50
g84
sg51
I0
sg52
g65
sg53
Vn
stRp909
ag1
(g857
g823
(dp910
g50
g80
sg51
I0
sg52
g84
sg53
Vm
stRp911
ag1
(g857
g823
(dp912
g50
g70
sg51
I0
sg52
g84
sg53
Vx
stRp913
ag1
(g857
g823
(dp914
g50
g84
sg51
I0
sg52
g70
sg53
Vn
stRp915
ag1
(g857
g823
(dp916
g50
g65
sg51
I0
sg52
g70
sg53
Vz
stRp917
ag1
(g857
g823
(dp918
g50
g70
sg51
I0
sg52
g84
sg53
Vx
stRp919
ag1
(g857
g823
(dp920
g50
g80
sg51
I0
sg52
g70
sg53
Vm
stRp921
ag1
(g857
g823
(dp922
g50
g80
sg51
I0
sg52
g65
sg53
Vm
stRp923
ag1
(g857
g823
(dp924
g50
g70
sg51
I0
sg52
g84
sg53
Vx
stRp925
ag1
(g857
g823
(dp926
g50
g84
sg51
I1
sg52
g84
sg53
Vn
stRp927
ag1
(g857
g823
(dp928
g50
g84
sg51
I0
sg52
g65
sg53
Vn
stRp929
ag1
(g857
g823
(dp930
g50
g80
sg51
I0
sg52
g84
sg53
Vm
stRp931
ag1
(g857
g823
(dp932
g50
g80
sg51
I0
sg52
g70
sg53
Vm
stRp933
ag1
(g857
g823
(dp934
g50
g70
sg51
I0
sg52
g84
sg53
Vx
stRp935
ag1
(g857
g823
(dp936
g50
g65
sg51
I0
sg52
g80
sg53
Vz
stRp937
asS'seed'
p938
NsS'thisIndex'
p939
g305
sS'thisN'
p940
I40
sS'thisTrialN'
p941
I0
sS'nTotal'
p942
I40
sS'_warnUseOfNext'
p943
I01
sbag1
(g811
g3
NtRp944
(dp945
g814
V<PsychoPy2experiment version="1.82.01" encoding="utf-8">\u000a  <Settings>\u000a    <Param name="Show mouse" val="False" valType="bool" updates="None"/>\u000a    <Param name="Data filename" val="'data/%s_%s_%s' %(expInfo['participant'], expName, expInfo['date'])" valType="code" updates="None"/>\u000a    <Param name="Monitor" val="testMonitor" valType="str" updates="None"/>\u000a    <Param name="Enable Escape" val="True" valType="bool" updates="None"/>\u000a    <Param name="color" val="$[0,0,0]" valType="str" updates="None"/>\u000a    <Param name="Window size (pixels)" val="[1024, 768]" valType="code" updates="None"/>\u000a    <Param name="Full-screen window" val="True" valType="bool" updates="None"/>\u000a    <Param name="colorSpace" val="rgb" valType="str" updates="None"/>\u000a    <Param name="Experiment info" val="{'participant':'', 'session':'001'}" valType="code" updates="None"/>\u000a    <Param name="Save csv file" val="False" valType="bool" updates="None"/>\u000a    <Param name="Show info dlg" val="True" valType="bool" updates="None"/>\u000a    <Param name="Save wide csv file" val="True" valType="bool" updates="None"/>\u000a    <Param name="Save psydat file" val="True" valType="bool" updates="None"/>\u000a    <Param name="expName" val="stroop short" valType="str" updates="None"/>\u000a    <Param name="logging level" val="exp" valType="code" updates="None"/>\u000a    <Param name="blendMode" val="avg" valType="str" updates="None"/>\u000a    <Param name="Save excel file" val="False" valType="bool" updates="None"/>\u000a    <Param name="Units" val="use prefs" valType="str" updates="None"/>\u000a    <Param name="Save log file" val="True" valType="bool" updates="None"/>\u000a    <Param name="Screen" val="1" valType="num" updates="None"/>\u000a  </Settings>\u000a  <Routines>\u000a    <Routine name="feedback">\u000a      <CodeComponent name="code_2">\u000a        <Param name="Begin Experiment" val="#msg variable just needs some value at start&#10;msg=''" valType="extendedCode" updates="constant"/>\u000a        <Param name="name" val="code_2" valType="code" updates="None"/>\u000a        <Param name="Begin Routine" val="if resp.corr:#stored on last run routine&#10;  msg=&quot;Correct! :)&quot;&#10;else:&#10;  msg=&quot;Incorrect! :(&quot;" valType="extendedCode" updates="constant"/>\u000a        <Param name="End Routine" val="" valType="extendedCode" updates="constant"/>\u000a        <Param name="End Experiment" val="" valType="extendedCode" updates="constant"/>\u000a        <Param name="Each Frame" val="" valType="extendedCode" updates="constant"/>\u000a      </CodeComponent>\u000a      <TextComponent name="text_4">\u000a        <Param name="opacity" val="1" valType="code" updates="constant"/>\u000a        <Param name="colorSpace" val="rgb" valType="str" updates="constant"/>\u000a        <Param name="name" val="text_4" valType="code" updates="None"/>\u000a        <Param name="wrapWidth" val="" valType="code" updates="constant"/>\u000a        <Param name="color" val="white" valType="str" updates="constant"/>\u000a        <Param name="text" val="$msg" valType="str" updates="set every repeat"/>\u000a        <Param name="stopVal" val="1.0" valType="code" updates="constant"/>\u000a        <Param name="durationEstim" val="" valType="code" updates="None"/>\u000a        <Param name="pos" val="[0, 0]" valType="code" updates="constant"/>\u000a        <Param name="flip" val="" valType="str" updates="constant"/>\u000a        <Param name="startEstim" val="" valType="code" updates="None"/>\u000a        <Param name="units" val="from exp settings" valType="str" updates="None"/>\u000a        <Param name="startType" val="time (s)" valType="str" updates="None"/>\u000a        <Param name="ori" val="0" valType="code" updates="constant"/>\u000a        <Param name="stopType" val="duration (s)" valType="str" updates="None"/>\u000a        <Param name="startVal" val="0.0" valType="code" updates="None"/>\u000a        <Param name="font" val="Arial" valType="str" updates="constant"/>\u000a        <Param name="letterHeight" val="0.1" valType="code" updates="constant"/>\u000a      </TextComponent>\u000a    </Routine>\u000a    <Routine name="introduction">\u000a      <TextComponent name="intro_text">\u000a        <Param name="opacity" val="1" valType="code" updates="constant"/>\u000a        <Param name="colorSpace" val="rgb" valType="str" updates="constant"/>\u000a        <Param name="name" val="intro_text" valType="code" updates="None"/>\u000a        <Param name="wrapWidth" val="" valType="code" updates="constant"/>\u000a        <Param name="color" val="white" valType="str" updates="constant"/>\u000a        <Param name="text" val="Welcome to Stroop Task - Short Paradigm!" valType="str" updates="constant"/>\u000a        <Param name="stopVal" val="" valType="code" updates="constant"/>\u000a        <Param name="durationEstim" val="" valType="code" updates="None"/>\u000a        <Param name="pos" val="[0, 0]" valType="code" updates="constant"/>\u000a        <Param name="flip" val="" valType="str" updates="constant"/>\u000a        <Param name="startEstim" val="" valType="code" updates="None"/>\u000a        <Param name="units" val="from exp settings" valType="str" updates="None"/>\u000a        <Param name="startType" val="time (s)" valType="str" updates="None"/>\u000a        <Param name="ori" val="0" valType="code" updates="constant"/>\u000a        <Param name="stopType" val="duration (s)" valType="str" updates="None"/>\u000a        <Param name="startVal" val="0.0" valType="code" updates="None"/>\u000a        <Param name="font" val="Arial" valType="str" updates="constant"/>\u000a        <Param name="letterHeight" val="0.1" valType="code" updates="constant"/>\u000a      </TextComponent>\u000a      <KeyboardComponent name="key_resp_3">\u000a        <Param name="correctAns" val="" valType="str" updates="constant"/>\u000a        <Param name="storeCorrect" val="False" valType="bool" updates="constant"/>\u000a        <Param name="name" val="key_resp_3" valType="code" updates="None"/>\u000a        <Param name="stopVal" val="" valType="code" updates="constant"/>\u000a        <Param name="durationEstim" val="" valType="code" updates="None"/>\u000a        <Param name="forceEndRoutine" val="True" valType="bool" updates="constant"/>\u000a        <Param name="startEstim" val="" valType="code" updates="None"/>\u000a        <Param name="discard previous" val="True" valType="bool" updates="constant"/>\u000a        <Param name="startType" val="time (s)" valType="str" updates="None"/>\u000a        <Param name="allowedKeys" val="'space'" valType="code" updates="constant"/>\u000a        <Param name="stopType" val="duration (s)" valType="str" updates="None"/>\u000a        <Param name="startVal" val="1" valType="code" updates="None"/>\u000a        <Param name="store" val="last key" valType="str" updates="constant"/>\u000a      </KeyboardComponent>\u000a    </Routine>\u000a    <Routine name="instruction">\u000a      <TextComponent name="text">\u000a        <Param name="opacity" val="1" valType="code" updates="constant"/>\u000a        <Param name="colorSpace" val="rgb" valType="str" updates="constant"/>\u000a        <Param name="name" val="text" valType="code" updates="None"/>\u000a        <Param name="wrapWidth" val="" valType="code" updates="constant"/>\u000a        <Param name="color" val="white" valType="str" updates="constant"/>\u000a        <Param name="text" val="INSTRUCTIONS&#10;&#10;Indicate the color of the words&#10;Red: &quot;z&quot;   &#10;Yellow: &quot;x&quot;&#10;Green: &quot;n&quot;&#10;Blue: &quot;m&quot;&#10;&#10;Please give quick and exact answer&#10;&#10;(Press Space to start)" valType="str" updates="constant"/>\u000a        <Param name="stopVal" val="" valType="code" updates="constant"/>\u000a        <Param name="durationEstim" val="" valType="code" updates="None"/>\u000a        <Param name="pos" val="[0, 0]" valType="code" updates="constant"/>\u000a        <Param name="flip" val="" valType="str" updates="constant"/>\u000a        <Param name="startEstim" val="" valType="code" updates="None"/>\u000a        <Param name="units" val="from exp settings" valType="str" updates="None"/>\u000a        <Param name="startType" val="time (s)" valType="str" updates="None"/>\u000a        <Param name="ori" val="0" valType="code" updates="constant"/>\u000a        <Param name="stopType" val="duration (s)" valType="str" updates="None"/>\u000a        <Param name="startVal" val="0.0" valType="code" updates="None"/>\u000a        <Param name="font" val="Arial" valType="str" updates="constant"/>\u000a        <Param name="letterHeight" val="0.1" valType="code" updates="constant"/>\u000a      </TextComponent>\u000a      <KeyboardComponent name="key_resp_2">\u000a        <Param name="correctAns" val="" valType="str" updates="constant"/>\u000a        <Param name="storeCorrect" val="False" valType="bool" updates="constant"/>\u000a        <Param name="name" val="key_resp_2" valType="code" updates="None"/>\u000a        <Param name="stopVal" val="" valType="code" updates="constant"/>\u000a        <Param name="durationEstim" val="" valType="code" updates="None"/>\u000a        <Param name="forceEndRoutine" val="True" valType="bool" updates="constant"/>\u000a        <Param name="startEstim" val="" valType="code" updates="None"/>\u000a        <Param name="discard previous" val="True" valType="bool" updates="constant"/>\u000a        <Param name="startType" val="time (s)" valType="str" updates="None"/>\u000a        <Param name="allowedKeys" val="'space'" valType="code" updates="constant"/>\u000a        <Param name="stopType" val="duration (s)" valType="str" updates="None"/>\u000a        <Param name="startVal" val="1" valType="code" updates="None"/>\u000a        <Param name="store" val="last key" valType="str" updates="constant"/>\u000a      </KeyboardComponent>\u000a    </Routine>\u000a    <Routine name="rest">\u000a      <TextComponent name="rest_text">\u000a        <Param name="opacity" val="1" valType="code" updates="constant"/>\u000a        <Param name="colorSpace" val="rgb" valType="str" updates="constant"/>\u000a        <Param name="name" val="rest_text" valType="code" updates="None"/>\u000a        <Param name="wrapWidth" val="" valType="code" updates="constant"/>\u000a        <Param name="color" val="white" valType="str" updates="constant"/>\u000a        <Param name="text" val="+" valType="str" updates="set every repeat"/>\u000a        <Param name="stopVal" val="60" valType="code" updates="constant"/>\u000a        <Param name="durationEstim" val="" valType="code" updates="None"/>\u000a        <Param name="pos" val="[0, 0]" valType="code" updates="constant"/>\u000a        <Param name="flip" val="" valType="str" updates="constant"/>\u000a        <Param name="startEstim" val="" valType="code" updates="None"/>\u000a        <Param name="units" val="from exp settings" valType="str" updates="None"/>\u000a        <Param name="startType" val="time (s)" valType="str" updates="None"/>\u000a        <Param name="ori" val="0" valType="code" updates="constant"/>\u000a        <Param name="stopType" val="duration (s)" valType="str" updates="None"/>\u000a        <Param name="startVal" val="0.0" valType="code" updates="None"/>\u000a        <Param name="font" val="Arial" valType="str" updates="constant"/>\u000a        <Param name="letterHeight" val="0.1" valType="code" updates="constant"/>\u000a      </TextComponent>\u000a      <KeyboardComponent name="key_resp_8">\u000a        <Param name="correctAns" val="" valType="str" updates="constant"/>\u000a        <Param name="storeCorrect" val="False" valType="bool" updates="constant"/>\u000a        <Param name="name" val="key_resp_8" valType="code" updates="None"/>\u000a        <Param name="stopVal" val="60" valType="code" updates="constant"/>\u000a        <Param name="durationEstim" val="" valType="code" updates="None"/>\u000a        <Param name="forceEndRoutine" val="False" valType="bool" updates="constant"/>\u000a        <Param name="startEstim" val="" valType="code" updates="None"/>\u000a        <Param name="discard previous" val="True" valType="bool" updates="constant"/>\u000a        <Param name="startType" val="time (s)" valType="str" updates="None"/>\u000a        <Param name="allowedKeys" val="'space'" valType="code" updates="constant"/>\u000a        <Param name="stopType" val="duration (s)" valType="str" updates="None"/>\u000a        <Param name="startVal" val="0.0" valType="code" updates="None"/>\u000a        <Param name="store" val="last key" valType="str" updates="constant"/>\u000a      </KeyboardComponent>\u000a    </Routine>\u000a    <Routine name="ending">\u000a      <TextComponent name="ending_text">\u000a        <Param name="opacity" val="1" valType="code" updates="constant"/>\u000a        <Param name="colorSpace" val="rgb" valType="str" updates="constant"/>\u000a        <Param name="name" val="ending_text" valType="code" updates="None"/>\u000a        <Param name="wrapWidth" val="" valType="code" updates="constant"/>\u000a        <Param name="color" val="white" valType="str" updates="constant"/>\u000a        <Param name="text" val="Thank you for your participation :)" valType="str" updates="constant"/>\u000a        <Param name="stopVal" val="10" valType="code" updates="constant"/>\u000a        <Param name="durationEstim" val="" valType="code" updates="None"/>\u000a        <Param name="pos" val="[0, 0]" valType="code" updates="constant"/>\u000a        <Param name="flip" val="" valType="str" updates="constant"/>\u000a        <Param name="startEstim" val="" valType="code" updates="None"/>\u000a        <Param name="units" val="from exp settings" valType="str" updates="None"/>\u000a        <Param name="startType" val="time (s)" valType="str" updates="None"/>\u000a        <Param name="ori" val="0" valType="code" updates="constant"/>\u000a        <Param name="stopType" val="duration (s)" valType="str" updates="None"/>\u000a        <Param name="startVal" val="0.0" valType="code" updates="None"/>\u000a        <Param name="font" val="Arial" valType="str" updates="constant"/>\u000a        <Param name="letterHeight" val="0.1" valType="code" updates="constant"/>\u000a      </TextComponent>\u000a      <KeyboardComponent name="key_resp_9">\u000a        <Param name="correctAns" val="" valType="str" updates="constant"/>\u000a        <Param name="storeCorrect" val="False" valType="bool" updates="constant"/>\u000a        <Param name="name" val="key_resp_9" valType="code" updates="None"/>\u000a        <Param name="stopVal" val="" valType="code" updates="constant"/>\u000a        <Param name="durationEstim" val="" valType="code" updates="None"/>\u000a        <Param name="forceEndRoutine" val="True" valType="bool" updates="constant"/>\u000a        <Param name="startEstim" val="" valType="code" updates="None"/>\u000a        <Param name="discard previous" val="True" valType="bool" updates="constant"/>\u000a        <Param name="startType" val="time (s)" valType="str" updates="None"/>\u000a        <Param name="allowedKeys" val="'y','n','left','right','space'" valType="code" updates="constant"/>\u000a        <Param name="stopType" val="duration (s)" valType="str" updates="None"/>\u000a        <Param name="startVal" val="1" valType="code" updates="None"/>\u000a        <Param name="store" val="last key" valType="str" updates="constant"/>\u000a      </KeyboardComponent>\u000a    </Routine>\u000a    <Routine name="trial">\u000a      <StaticComponent name="ISI">\u000a        <Param name="code" val="" valType="code" updates="None"/>\u000a        <Param name="name" val="ISI" valType="code" updates="None"/>\u000a        <Param name="stopVal" val="0.5" valType="code" updates="constant"/>\u000a        <Param name="durationEstim" val="" valType="code" updates="None"/>\u000a        <Param name="startEstim" val="" valType="code" updates="None"/>\u000a        <Param name="startType" val="time (s)" valType="str" updates="None"/>\u000a        <Param name="stopType" val="duration (s)" valType="str" updates="None"/>\u000a        <Param name="startVal" val="0.0" valType="code" updates="None"/>\u000a      </StaticComponent>\u000a      <TextComponent name="trial_text">\u000a        <Param name="opacity" val="1" valType="code" updates="constant"/>\u000a        <Param name="colorSpace" val="rgb" valType="str" updates="constant"/>\u000a        <Param name="name" val="trial_text" valType="code" updates="None"/>\u000a        <Param name="wrapWidth" val="" valType="code" updates="constant"/>\u000a        <Param name="color" val="$color" valType="str" updates="set every repeat"/>\u000a        <Param name="text" val="$word" valType="str" updates="set every repeat"/>\u000a        <Param name="stopVal" val="1.3" valType="code" updates="constant"/>\u000a        <Param name="durationEstim" val="" valType="code" updates="None"/>\u000a        <Param name="pos" val="[0, 0]" valType="code" updates="constant"/>\u000a        <Param name="flip" val="" valType="str" updates="constant"/>\u000a        <Param name="startEstim" val="" valType="code" updates="None"/>\u000a        <Param name="units" val="from exp settings" valType="str" updates="None"/>\u000a        <Param name="startType" val="time (s)" valType="str" updates="None"/>\u000a        <Param name="ori" val="0" valType="code" updates="constant"/>\u000a        <Param name="stopType" val="duration (s)" valType="str" updates="None"/>\u000a        <Param name="startVal" val="0.8" valType="code" updates="None"/>\u000a        <Param name="font" val="Arial" valType="str" updates="constant"/>\u000a        <Param name="letterHeight" val="0.1" valType="code" updates="constant"/>\u000a      </TextComponent>\u000a      <KeyboardComponent name="resp">\u000a        <Param name="correctAns" val="$corrans" valType="str" updates="constant"/>\u000a        <Param name="storeCorrect" val="True" valType="bool" updates="constant"/>\u000a        <Param name="name" val="resp" valType="code" updates="None"/>\u000a        <Param name="stopVal" val="2.2" valType="code" updates="constant"/>\u000a        <Param name="durationEstim" val="" valType="code" updates="None"/>\u000a        <Param name="forceEndRoutine" val="False" valType="bool" updates="constant"/>\u000a        <Param name="startEstim" val="" valType="code" updates="None"/>\u000a        <Param name="discard previous" val="True" valType="bool" updates="constant"/>\u000a        <Param name="startType" val="time (s)" valType="str" updates="None"/>\u000a        <Param name="allowedKeys" val="'z','x','n','m'" valType="code" updates="constant"/>\u000a        <Param name="stopType" val="duration (s)" valType="str" updates="None"/>\u000a        <Param name="startVal" val="0.8" valType="code" updates="None"/>\u000a        <Param name="store" val="last key" valType="str" updates="constant"/>\u000a      </KeyboardComponent>\u000a      <TextComponent name="fixationtrial">\u000a        <Param name="opacity" val="1" valType="code" updates="constant"/>\u000a        <Param name="colorSpace" val="rgb" valType="str" updates="constant"/>\u000a        <Param name="name" val="fixationtrial" valType="code" updates="None"/>\u000a        <Param name="wrapWidth" val="" valType="code" updates="constant"/>\u000a        <Param name="color" val="white" valType="str" updates="constant"/>\u000a        <Param name="text" val="+" valType="str" updates="constant"/>\u000a        <Param name="stopVal" val="0.8" valType="code" updates="constant"/>\u000a        <Param name="durationEstim" val="" valType="code" updates="None"/>\u000a        <Param name="pos" val="[0, 0]" valType="code" updates="constant"/>\u000a        <Param name="flip" val="" valType="str" updates="constant"/>\u000a        <Param name="startEstim" val="" valType="code" updates="None"/>\u000a        <Param name="units" val="from exp settings" valType="str" updates="None"/>\u000a        <Param name="startType" val="time (s)" valType="str" updates="None"/>\u000a        <Param name="ori" val="0" valType="code" updates="constant"/>\u000a        <Param name="stopType" val="duration (s)" valType="str" updates="None"/>\u000a        <Param name="startVal" val="0.0" valType="code" updates="None"/>\u000a        <Param name="font" val="Arial" valType="str" updates="constant"/>\u000a        <Param name="letterHeight" val="0.1" valType="code" updates="constant"/>\u000a      </TextComponent>\u000a    </Routine>\u000a    <Routine name="maintask">\u000a      <TextComponent name="text_2">\u000a        <Param name="opacity" val="1" valType="code" updates="constant"/>\u000a        <Param name="colorSpace" val="rgb" valType="str" updates="constant"/>\u000a        <Param name="name" val="text_2" valType="code" updates="None"/>\u000a        <Param name="wrapWidth" val="" valType="code" updates="constant"/>\u000a        <Param name="color" val="$color" valType="str" updates="set every repeat"/>\u000a        <Param name="text" val="$word" valType="str" updates="set every repeat"/>\u000a        <Param name="stopVal" val="1.3" valType="code" updates="constant"/>\u000a        <Param name="durationEstim" val="" valType="code" updates="None"/>\u000a        <Param name="pos" val="[0, 0]" valType="code" updates="constant"/>\u000a        <Param name="flip" val="" valType="str" updates="constant"/>\u000a        <Param name="startEstim" val="" valType="code" updates="None"/>\u000a        <Param name="units" val="from exp settings" valType="str" updates="None"/>\u000a        <Param name="startType" val="time (s)" valType="str" updates="None"/>\u000a        <Param name="ori" val="0" valType="code" updates="constant"/>\u000a        <Param name="stopType" val="duration (s)" valType="str" updates="None"/>\u000a        <Param name="startVal" val="0.8" valType="code" updates="None"/>\u000a        <Param name="font" val="Arial" valType="str" updates="constant"/>\u000a        <Param name="letterHeight" val="0.1" valType="code" updates="constant"/>\u000a      </TextComponent>\u000a      <TextComponent name="fixationmain">\u000a        <Param name="opacity" val="1" valType="code" updates="constant"/>\u000a        <Param name="colorSpace" val="rgb" valType="str" updates="constant"/>\u000a        <Param name="name" val="fixationmain" valType="code" updates="None"/>\u000a        <Param name="wrapWidth" val="" valType="code" updates="constant"/>\u000a        <Param name="color" val="white" valType="str" updates="constant"/>\u000a        <Param name="text" val="+" valType="str" updates="constant"/>\u000a        <Param name="stopVal" val="0.8" valType="code" updates="constant"/>\u000a        <Param name="durationEstim" val="" valType="code" updates="None"/>\u000a        <Param name="pos" val="[0, 0]" valType="code" updates="constant"/>\u000a        <Param name="flip" val="" valType="str" updates="constant"/>\u000a        <Param name="startEstim" val="" valType="code" updates="None"/>\u000a        <Param name="units" val="from exp settings" valType="str" updates="None"/>\u000a        <Param name="startType" val="time (s)" valType="str" updates="None"/>\u000a        <Param name="ori" val="0" valType="code" updates="constant"/>\u000a        <Param name="stopType" val="duration (s)" valType="str" updates="None"/>\u000a        <Param name="startVal" val="0.0" valType="code" updates="None"/>\u000a        <Param name="font" val="Arial" valType="str" updates="constant"/>\u000a        <Param name="letterHeight" val="0.1" valType="code" updates="constant"/>\u000a      </TextComponent>\u000a      <KeyboardComponent name="key_resp_7">\u000a        <Param name="correctAns" val="$corrans" valType="str" updates="constant"/>\u000a        <Param name="storeCorrect" val="True" valType="bool" updates="constant"/>\u000a        <Param name="name" val="key_resp_7" valType="code" updates="None"/>\u000a        <Param name="stopVal" val="2.2" valType="code" updates="constant"/>\u000a        <Param name="durationEstim" val="" valType="code" updates="None"/>\u000a        <Param name="forceEndRoutine" val="False" valType="bool" updates="constant"/>\u000a        <Param name="startEstim" val="" valType="code" updates="None"/>\u000a        <Param name="discard previous" val="True" valType="bool" updates="constant"/>\u000a        <Param name="startType" val="time (s)" valType="str" updates="None"/>\u000a        <Param name="allowedKeys" val="'z','x','n','m'" valType="code" updates="constant"/>\u000a        <Param name="stopType" val="duration (s)" valType="str" updates="None"/>\u000a        <Param name="startVal" val="0.8" valType="code" updates="None"/>\u000a        <Param name="store" val="last key" valType="str" updates="constant"/>\u000a      </KeyboardComponent>\u000a      <SoundComponent name="sound_1">\u000a        <Param name="sound" val="chopin2.wav" valType="str" updates="constant"/>\u000a        <Param name="volume" val="1" valType="code" updates="constant"/>\u000a        <Param name="name" val="sound_1" valType="code" updates="None"/>\u000a        <Param name="stopVal" val="1.0" valType="code" updates="constant"/>\u000a        <Param name="durationEstim" val="" valType="code" updates="None"/>\u000a        <Param name="startEstim" val="" valType="code" updates="None"/>\u000a        <Param name="startType" val="time (s)" valType="str" updates="None"/>\u000a        <Param name="stopType" val="duration (s)" valType="str" updates="None"/>\u000a        <Param name="startVal" val="0.0" valType="code" updates="None"/>\u000a      </SoundComponent>\u000a    </Routine>\u000a    <Routine name="fixation">\u000a      <TextComponent name="text_3">\u000a        <Param name="opacity" val="1" valType="code" updates="constant"/>\u000a        <Param name="colorSpace" val="rgb" valType="str" updates="constant"/>\u000a        <Param name="name" val="text_3" valType="code" updates="None"/>\u000a        <Param name="wrapWidth" val="" valType="code" updates="constant"/>\u000a        <Param name="color" val="white" valType="str" updates="constant"/>\u000a        <Param name="text" val="+" valType="str" updates="constant"/>\u000a        <Param name="stopVal" val="0.8" valType="code" updates="constant"/>\u000a        <Param name="durationEstim" val="" valType="code" updates="None"/>\u000a        <Param name="pos" val="[0, 0]" valType="code" updates="constant"/>\u000a        <Param name="flip" val="" valType="str" updates="constant"/>\u000a        <Param name="startEstim" val="" valType="code" updates="None"/>\u000a        <Param name="units" val="from exp settings" valType="str" updates="None"/>\u000a        <Param name="startType" val="time (s)" valType="str" updates="None"/>\u000a        <Param name="ori" val="0" valType="code" updates="constant"/>\u000a        <Param name="stopType" val="duration (s)" valType="str" updates="None"/>\u000a        <Param name="startVal" val="0.0" valType="code" updates="None"/>\u000a        <Param name="font" val="Arial" valType="str" updates="constant"/>\u000a        <Param name="letterHeight" val="0.1" valType="code" updates="constant"/>\u000a      </TextComponent>\u000a      <KeyboardComponent name="key_resp_5">\u000a        <Param name="correctAns" val="$corrans" valType="str" updates="constant"/>\u000a        <Param name="storeCorrect" val="True" valType="bool" updates="constant"/>\u000a        <Param name="name" val="key_resp_5" valType="code" updates="None"/>\u000a        <Param name="stopVal" val="" valType="code" updates="constant"/>\u000a        <Param name="durationEstim" val="" valType="code" updates="None"/>\u000a        <Param name="forceEndRoutine" val="True" valType="bool" updates="constant"/>\u000a        <Param name="startEstim" val="" valType="code" updates="None"/>\u000a        <Param name="discard previous" val="True" valType="bool" updates="constant"/>\u000a        <Param name="startType" val="time (s)" valType="str" updates="None"/>\u000a        <Param name="allowedKeys" val="'z','x','n','m'" valType="code" updates="constant"/>\u000a        <Param name="stopType" val="duration (s)" valType="str" updates="None"/>\u000a        <Param name="startVal" val="0.8" valType="code" updates="None"/>\u000a        <Param name="store" val="last key" valType="str" updates="constant"/>\u000a      </KeyboardComponent>\u000a    </Routine>\u000a    <Routine name="instruction2">\u000a      <TextComponent name="instruction2_text">\u000a        <Param name="opacity" val="1" valType="code" updates="constant"/>\u000a        <Param name="colorSpace" val="rgb" valType="str" updates="constant"/>\u000a        <Param name="name" val="instruction2_text" valType="code" updates="None"/>\u000a        <Param name="wrapWidth" val="" valType="code" updates="constant"/>\u000a        <Param name="color" val="white" valType="str" updates="constant"/>\u000a        <Param name="text" val="Are you ready ?&#10;&#10;You have 3s for each word" valType="str" updates="constant"/>\u000a        <Param name="stopVal" val="" valType="code" updates="constant"/>\u000a        <Param name="durationEstim" val="" valType="code" updates="None"/>\u000a        <Param name="pos" val="[0, 0]" valType="code" updates="constant"/>\u000a        <Param name="flip" val="" valType="str" updates="constant"/>\u000a        <Param name="startEstim" val="" valType="code" updates="None"/>\u000a        <Param name="units" val="from exp settings" valType="str" updates="None"/>\u000a        <Param name="startType" val="time (s)" valType="str" updates="None"/>\u000a        <Param name="ori" val="0" valType="code" updates="constant"/>\u000a        <Param name="stopType" val="duration (s)" valType="str" updates="None"/>\u000a        <Param name="startVal" val="0.0" valType="code" updates="None"/>\u000a        <Param name="font" val="Arial" valType="str" updates="constant"/>\u000a        <Param name="letterHeight" val="0.1" valType="code" updates="constant"/>\u000a      </TextComponent>\u000a      <KeyboardComponent name="key_resp_4">\u000a        <Param name="correctAns" val="" valType="str" updates="constant"/>\u000a        <Param name="storeCorrect" val="False" valType="bool" updates="constant"/>\u000a        <Param name="name" val="key_resp_4" valType="code" updates="None"/>\u000a        <Param name="stopVal" val="" valType="code" updates="constant"/>\u000a        <Param name="durationEstim" val="" valType="code" updates="None"/>\u000a        <Param name="forceEndRoutine" val="True" valType="bool" updates="constant"/>\u000a        <Param name="startEstim" val="" valType="code" updates="None"/>\u000a        <Param name="discard previous" val="True" valType="bool" updates="constant"/>\u000a        <Param name="startType" val="time (s)" valType="str" updates="None"/>\u000a        <Param name="allowedKeys" val="'space'" valType="code" updates="constant"/>\u000a        <Param name="stopType" val="duration (s)" valType="str" updates="None"/>\u000a        <Param name="startVal" val="1" valType="code" updates="None"/>\u000a        <Param name="store" val="last key" valType="str" updates="constant"/>\u000a      </KeyboardComponent>\u000a    </Routine>\u000a  </Routines>\u000a  <Flow>\u000a    <Routine name="introduction"/>\u000a    <Routine name="instruction"/>\u000a    <Routine name="instruction2"/>\u000a    <Routine name="rest"/>\u000a    <LoopInitiator loopType="TrialHandler" name="inverse1">\u000a      <Param name="conditionsFile" val="Stroopmain-short-in-10event x 4.xlsx" valType="str" updates="None"/>\u000a      <Param name="name" val="inverse1" valType="code" updates="None"/>\u000a      <Param name="isTrials" val="True" valType="bool" updates="None"/>\u000a      <Param name="random seed" val="" valType="code" updates="None"/>\u000a      <Param name="loopType" val="sequential" valType="str" updates="None"/>\u000a      <Param name="nReps" val="1" valType="code" updates="None"/>\u000a      <Param name="endPoints" val="[0, 1]" valType="num" updates="None"/>\u000a      <Param name="conditions" val="[{u'color': u'RED', u'congruent': 0, u'word': u'YELLOW', u'corrans': u'z'}, {u'color': u'RED', u'congruent': 1, u'word': u'RED', u'corrans': u'z'}, {u'color': u'BLUE', u'congruent': 0, u'word': u'GREEN', u'corrans': u'z'}, {u'color': u'YELLOW', u'congruent': 0, u'word': u'RED', u'corrans': u'z'}, {u'color': u'GREEN', u'congruent': 0, u'word': u'RED', u'corrans': u'n'}, {u'color': u'RED', u'congruent': 0, u'word': u'BLUE', u'corrans': u'z'}, {u'color': u'GREEN', u'congruent': 0, u'word': u'YELLOW', u'corrans': u'n'}, {u'color': u'YELLOW', u'congruent': 0, u'word': u'BLUE', u'corrans': u'x'}, {u'color': u'GREEN', u'congruent': 0, u'word': u'BLUE', u'corrans': u'n'}, {u'color': u'RED', u'congruent': 0, u'word': u'GREEN', u'corrans': u'z'}, {u'color': u'YELLOW', u'congruent': 0, u'word': u'BLUE', u'corrans': u'x'}, {u'color': u'RED', u'congruent': 0, u'word': u'RED', u'corrans': u'z'}, {u'color': u'BLUE', u'congruent': 1, u'word': u'BLUE', u'corrans': u'm'}, {u'color': u'GREEN', u'congruent': 0, u'word': u'RED', u'corrans': u'n'}, {u'color': u'BLUE', u'congruent': 0, u'word': u'RED', u'corrans': u'm'}, {u'color': u'BLUE', u'congruent': 0, u'word': u'GREEN', u'corrans': u'm'}, {u'color': u'YELLOW', u'congruent': 0, u'word': u'GREEN', u'corrans': u'x'}, {u'color': u'RED', u'congruent': 0, u'word': u'YELLOW', u'corrans': u'z'}, {u'color': u'RED', u'congruent': 0, u'word': u'BLUE', u'corrans': u'z'}, {u'color': u'GREEN', u'congruent': 0, u'word': u'RED', u'corrans': u'm'}, {u'color': u'BLUE', u'congruent': 0, u'word': u'GREEN', u'corrans': u'm'}, {u'color': u'RED', u'congruent': 0, u'word': u'YELLOW', u'corrans': u'z'}, {u'color': u'GREEN', u'congruent': 0, u'word': u'BLUE', u'corrans': u'n'}, {u'color': u'YELLOW', u'congruent': 1, u'word': u'YELLOW', u'corrans': u'x'}, {u'color': u'RED', u'congruent': 0, u'word': u'BLUE', u'corrans': u'z'}, {u'color': u'GREEN', u'congruent': 0, u'word': u'RED', u'corrans': u'n'}, {u'color': u'BLUE', u'congruent': 0, u'word': u'GREEN', u'corrans': u'm'}, {u'color': u'YELLOW', u'congruent': 0, u'word': u'GREEN', u'corrans': u'x'}, {u'color': u'GREEN', u'congruent': 0, u'word': u'YELLOW', u'corrans': u'n'}, {u'color': u'RED', u'congruent': 0, u'word': u'YELLOW', u'corrans': u'z'}, {u'color': u'YELLOW', u'congruent': 0, u'word': u'GREEN', u'corrans': u'x'}, {u'color': u'BLUE', u'congruent': 0, u'word': u'YELLOW', u'corrans': u'm'}, {u'color': u'BLUE', u'congruent': 0, u'word': u'RED', u'corrans': u'm'}, {u'color': u'YELLOW', u'congruent': 0, u'word': u'GREEN', u'corrans': u'x'}, {u'color': u'GREEN', u'congruent': 1, u'word': u'GREEN', u'corrans': u'n'}, {u'color': u'GREEN', u'congruent': 0, u'word': u'RED', u'corrans': u'n'}, {u'color': u'BLUE', u'congruent': 0, u'word': u'GREEN', u'corrans': u'm'}, {u'color': u'BLUE', u'congruent': 0, u'word': u'YELLOW', u'corrans': u'm'}, {u'color': u'YELLOW', u'congruent': 0, u'word': u'GREEN', u'corrans': u'x'}, {u'color': u'RED', u'congruent': 0, u'word': u'BLUE', u'corrans': u'z'}]" valType="str" updates="None"/>\u000a      <Param name="Selected rows" val="" valType="str" updates="None"/>\u000a    </LoopInitiator>\u000a    <Routine name="maintask"/>\u000a    <LoopTerminator name="inverse1"/>\u000a    <Routine name="rest"/>\u000a    <LoopInitiator loopType="TrialHandler" name="conven1">\u000a      <Param name="conditionsFile" val="Stroopmain-short-con-10event x 4.xlsx" valType="str" updates="None"/>\u000a      <Param name="name" val="conven1" valType="code" updates="None"/>\u000a      <Param name="isTrials" val="True" valType="bool" updates="None"/>\u000a      <Param name="random seed" val="" valType="code" updates="None"/>\u000a      <Param name="loopType" val="random" valType="str" updates="None"/>\u000a      <Param name="nReps" val="1" valType="code" updates="None"/>\u000a      <Param name="endPoints" val="[0, 1]" valType="num" updates="None"/>\u000a      <Param name="conditions" val="[{u'color': u'RED', u'congruent': 1, u'word': u'RED', u'corrans': u'z'}, {u'color': u'RED', u'congruent': 0, u'word': u'GREEN', u'corrans': u'z'}, {u'color': u'BLUE', u'congruent': 1, u'word': u'BLUE', u'corrans': u'z'}, {u'color': u'YELLOW', u'congruent': 1, u'word': u'YELLOW', u'corrans': u'z'}, {u'color': u'GREEN', u'congruent': 1, u'word': u'GREEN', u'corrans': u'n'}, {u'color': u'RED', u'congruent': 1, u'word': u'RED', u'corrans': u'z'}, {u'color': u'GREEN', u'congruent': 1, u'word': u'GREEN', u'corrans': u'n'}, {u'color': u'YELLOW', u'congruent': 1, u'word': u'YELLOW', u'corrans': u'x'}, {u'color': u'RED', u'congruent': 1, u'word': u'RED', u'corrans': u'z'}, {u'color': u'GREEN', u'congruent': 1, u'word': u'GREEN', u'corrans': u'n'}, {u'color': u'YELLOW', u'congruent': 1, u'word': u'YELLOW', u'corrans': u'x'}, {u'color': u'RED', u'congruent': 1, u'word': u'RED', u'corrans': u'z'}, {u'color': u'BLUE', u'congruent': 0, u'word': u'GREEN', u'corrans': u'm'}, {u'color': u'GREEN', u'congruent': 1, u'word': u'GREEN', u'corrans': u'n'}, {u'color': u'BLUE', u'congruent': 1, u'word': u'BLUE', u'corrans': u'm'}, {u'color': u'BLUE', u'congruent': 1, u'word': u'BLUE', u'corrans': u'm'}, {u'color': u'YELLOW', u'congruent': 1, u'word': u'YELLOW', u'corrans': u'x'}, {u'color': u'RED', u'congruent': 1, u'word': u'RED', u'corrans': u'z'}, {u'color': u'RED', u'congruent': 1, u'word': u'RED', u'corrans': u'z'}, {u'color': u'BLUE', u'congruent': 1, u'word': u'BLUE', u'corrans': u'm'}, {u'color': u'BLUE', u'congruent': 1, u'word': u'BLUE', u'corrans': u'm'}, {u'color': u'RED', u'congruent': 1, u'word': u'RED', u'corrans': u'z'}, {u'color': u'GREEN', u'congruent': 1, u'word': u'GREEN', u'corrans': u'n'}, {u'color': u'YELLOW', u'congruent': 0, u'word': u'RED', u'corrans': u'x'}, {u'color': u'RED', u'congruent': 1, u'word': u'RED', u'corrans': u'z'}, {u'color': u'GREEN', u'congruent': 1, u'word': u'GREEN', u'corrans': u'n'}, {u'color': u'BLUE', u'congruent': 1, u'word': u'BLUE', u'corrans': u'm'}, {u'color': u'YELLOW', u'congruent': 1, u'word': u'YELLOW', u'corrans': u'x'}, {u'color': u'GREEN', u'congruent': 1, u'word': u'GREEN', u'corrans': u'n'}, {u'color': u'RED', u'congruent': 1, u'word': u'RED', u'corrans': u'z'}, {u'color': u'YELLOW', u'congruent': 1, u'word': u'YELLOW', u'corrans': u'x'}, {u'color': u'BLUE', u'congruent': 1, u'word': u'BLUE', u'corrans': u'm'}, {u'color': u'BLUE', u'congruent': 1, u'word': u'BLUE', u'corrans': u'm'}, {u'color': u'YELLOW', u'congruent': 1, u'word': u'YELLOW', u'corrans': u'x'}, {u'color': u'GREEN', u'congruent': 0, u'word': u'BLUE', u'corrans': u'n'}, {u'color': u'GREEN', u'congruent': 1, u'word': u'GREEN', u'corrans': u'n'}, {u'color': u'BLUE', u'congruent': 1, u'word': u'BLUE', u'corrans': u'm'}, {u'color': u'BLUE', u'congruent': 1, u'word': u'BLUE', u'corrans': u'm'}, {u'color': u'YELLOW', u'congruent': 1, u'word': u'YELLOW', u'corrans': u'x'}, {u'color': u'GREEN', u'congruent': 1, u'word': u'GREEN', u'corrans': u'n'}]" valType="str" updates="None"/>\u000a      <Param name="Selected rows" val="" valType="str" updates="None"/>\u000a    </LoopInitiator>\u000a    <Routine name="maintask"/>\u000a    <LoopTerminator name="conven1"/>\u000a    <Routine name="rest"/>\u000a    <LoopInitiator loopType="TrialHandler" name="inverse2">\u000a      <Param name="conditionsFile" val="Stroopmain-short-in-10event x 4.xlsx" valType="str" updates="None"/>\u000a      <Param name="name" val="inverse2" valType="code" updates="None"/>\u000a      <Param name="isTrials" val="True" valType="bool" updates="None"/>\u000a      <Param name="random seed" val="" valType="code" updates="None"/>\u000a      <Param name="loopType" val="random" valType="str" updates="None"/>\u000a      <Param name="nReps" val="1" valType="code" updates="None"/>\u000a      <Param name="endPoints" val="[0, 1]" valType="num" updates="None"/>\u000a      <Param name="conditions" val="[{u'color': u'RED', u'congruent': 0, u'word': u'YELLOW', u'corrans': u'z'}, {u'color': u'RED', u'congruent': 1, u'word': u'RED', u'corrans': u'z'}, {u'color': u'BLUE', u'congruent': 0, u'word': u'GREEN', u'corrans': u'z'}, {u'color': u'YELLOW', u'congruent': 0, u'word': u'RED', u'corrans': u'z'}, {u'color': u'GREEN', u'congruent': 0, u'word': u'RED', u'corrans': u'n'}, {u'color': u'RED', u'congruent': 0, u'word': u'BLUE', u'corrans': u'z'}, {u'color': u'GREEN', u'congruent': 0, u'word': u'YELLOW', u'corrans': u'n'}, {u'color': u'YELLOW', u'congruent': 0, u'word': u'BLUE', u'corrans': u'x'}, {u'color': u'GREEN', u'congruent': 0, u'word': u'BLUE', u'corrans': u'n'}, {u'color': u'RED', u'congruent': 0, u'word': u'GREEN', u'corrans': u'z'}, {u'color': u'YELLOW', u'congruent': 0, u'word': u'BLUE', u'corrans': u'x'}, {u'color': u'RED', u'congruent': 0, u'word': u'RED', u'corrans': u'z'}, {u'color': u'BLUE', u'congruent': 1, u'word': u'BLUE', u'corrans': u'm'}, {u'color': u'GREEN', u'congruent': 0, u'word': u'RED', u'corrans': u'n'}, {u'color': u'BLUE', u'congruent': 0, u'word': u'RED', u'corrans': u'm'}, {u'color': u'BLUE', u'congruent': 0, u'word': u'GREEN', u'corrans': u'm'}, {u'color': u'YELLOW', u'congruent': 0, u'word': u'GREEN', u'corrans': u'x'}, {u'color': u'RED', u'congruent': 0, u'word': u'YELLOW', u'corrans': u'z'}, {u'color': u'RED', u'congruent': 0, u'word': u'BLUE', u'corrans': u'z'}, {u'color': u'GREEN', u'congruent': 0, u'word': u'RED', u'corrans': u'm'}, {u'color': u'BLUE', u'congruent': 0, u'word': u'GREEN', u'corrans': u'm'}, {u'color': u'RED', u'congruent': 0, u'word': u'YELLOW', u'corrans': u'z'}, {u'color': u'GREEN', u'congruent': 0, u'word': u'BLUE', u'corrans': u'n'}, {u'color': u'YELLOW', u'congruent': 1, u'word': u'YELLOW', u'corrans': u'x'}, {u'color': u'RED', u'congruent': 0, u'word': u'BLUE', u'corrans': u'z'}, {u'color': u'GREEN', u'congruent': 0, u'word': u'RED', u'corrans': u'n'}, {u'color': u'BLUE', u'congruent': 0, u'word': u'GREEN', u'corrans': u'm'}, {u'color': u'YELLOW', u'congruent': 0, u'word': u'GREEN', u'corrans': u'x'}, {u'color': u'GREEN', u'congruent': 0, u'word': u'YELLOW', u'corrans': u'n'}, {u'color': u'RED', u'congruent': 0, u'word': u'YELLOW', u'corrans': u'z'}, {u'color': u'YELLOW', u'congruent': 0, u'word': u'GREEN', u'corrans': u'x'}, {u'color': u'BLUE', u'congruent': 0, u'word': u'YELLOW', u'corrans': u'm'}, {u'color': u'BLUE', u'congruent': 0, u'word': u'RED', u'corrans': u'm'}, {u'color': u'YELLOW', u'congruent': 0, u'word': u'GREEN', u'corrans': u'x'}, {u'color': u'GREEN', u'congruent': 1, u'word': u'GREEN', u'corrans': u'n'}, {u'color': u'GREEN', u'congruent': 0, u'word': u'RED', u'corrans': u'n'}, {u'color': u'BLUE', u'congruent': 0, u'word': u'GREEN', u'corrans': u'm'}, {u'color': u'BLUE', u'congruent': 0, u'word': u'YELLOW', u'corrans': u'm'}, {u'color': u'YELLOW', u'congruent': 0, u'word': u'GREEN', u'corrans': u'x'}, {u'color': u'RED', u'congruent': 0, u'word': u'BLUE', u'corrans': u'z'}]" valType="str" updates="None"/>\u000a      <Param name="Selected rows" val="" valType="str" updates="None"/>\u000a    </LoopInitiator>\u000a    <Routine name="maintask"/>\u000a    <LoopTerminator name="inverse2"/>\u000a    <Routine name="rest"/>\u000a    <Routine name="ending"/>\u000a  </Flow>\u000a</PsychoPy2experiment>\u000a
p946
sg816
(lp947
sg818
I155060432
sg11
S'conven1'
p948
sg6
g7
sg820
I1
sg27
I01
sg28
g29
sg821
g1
(g822
g823
(dp949
g825
g826
(g827
g828
g829
S'b'
tRp950
(I1
(I40
I1
tg831
I00
S'\x00\x00\x80?\x00\x00\x80?\x00\x00\x80?\x00\x00\x80?\x00\x00\x80?\x00\x00\x80?\x00\x00\x80?\x00\x00\x80?\x00\x00\x80?\x00\x00\x80?\x00\x00\x80?\x00\x00\x80?\x00\x00\x80?\x00\x00\x80?\x00\x00\x80?\x00\x00\x80?\x00\x00\x80?\x00\x00\x80?\x00\x00\x80?\x00\x00\x80?\x00\x00\x80?\x00\x00\x80?\x00\x00\x80?\x00\x00\x80?\x00\x00\x80?\x00\x00\x80?\x00\x00\x80?\x00\x00\x80?\x00\x00\x80?\x00\x00\x80?\x00\x00\x80?\x00\x00\x80?\x00\x00\x80?\x00\x00\x80?\x00\x00\x80?\x00\x00\x80?\x00\x00\x80?\x00\x00\x80?\x00\x00\x80?\x00\x00\x80?'
S'\x00\x00\x00\x00\x00\x00\x00\x00\x00\x00\x00\x00\x00\x00\x00\x00\x00\x00\x00\x00\x00\x00\x00\x00\x00\x00\x00\x00\x00\x00\x00\x00\x00\x00\x00\x00\x00\x00\x00\x00'
Ntbsg24
g826
(g827
g828
g829
S'b'
tRp951
(I1
(I40
I1
tg831
I00
S'3+s?\xf1\xda]?\xdf\x81\x88?\xf0\x1f"?\xa1\xc7\x8c?:\x17\x11?|M\xd5?\xc1\xb4;?\xddR\x15?\x17\x82\x88?\xbb\xfe??\xd0PU?\xbam7?\xe5!s?asw?L\xe1\xdd>\xc2\xfc??\x9b\xd4]?\x15\rQ?\xff\x01\x00?"p\xe6>\xfb\xa9*?\x9e\x00@?\x1a\xb4;?\x9e\x863?Rpw?\xce\xa9*?\x1f\x00@?Y\xa4j?\x7f\xfc?? S\x15?\xc4R\xd5>O\xfd\xff>\xd7\xa3Y?\xa7TU?_\x1bb?\xa1[f?\xee\x0eQ?\x9a>\xa4?\xfc\xc9L?'
S'\x00\x00\x00\x00\x00\x00\x00\x00\x00\x00\x00\x00\x00\x00\x00\x00\x00\x00\x00\x00\x00\x00\x00\x00\x00\x00\x00\x00\x00\x00\x00\x00\x00\x00\x00\x00\x00\x00\x00\x00'
Ntbsg22
g826
(g827
g828
g829
S'b'
tRp952
(I1
(I40
I1
tg834
I00
S'\xd8X\xd1\r\xc0R\xd1\r\xd0Q\xd1\r\x00[\xd1\r@Z\xd1\r \\\xd1\r\x10Z\xd1\rxU\xd1\r\x00R\xd1\r\xb8W\xd1\r\x10T\xd1\r0R\xd1\r\xc8V\xd1\rHU\xd1\rx[\xd1\r\xe8W\xd1\r\x80P\xd1\r\xf0[\xd1\r\x88W\xd1\r\xa0Z\xd1\r\x88Q\xd1\r\xe8T\xd1\r\x98Y\xd1\r\xe0V\xd1\r8S\xd1\r\xc8Y\xd1\r\x08Y\xd1\r\xd8[\xd1\r\xc0X\xd1\r\xa8R\xd1\r\xf8V\xd1\r\xe0Y\xd1\rPV\xd1\r\x00X\xd1\r\xd0W\xd1\r\xa8U\xd1\r\xc8S\xd1\r\xa8[\xd1\r\xb0P\xd1\r\x80V\xd1\r'
S'\x00\x00\x00\x00\x00\x00\x00\x00\x00\x00\x00\x00\x00\x00\x00\x00\x00\x00\x00\x00\x00\x00\x00\x00\x00\x00\x00\x00\x00\x00\x00\x00\x00\x00\x00\x00\x00\x00\x00\x00'
Ntbsg835
g826
(g827
g828
g829
S'b'
tRp953
(I1
(I40
I1
tg831
I00
S'\x00\x00 A\x00\x000A\x00\x00\x18B\x00\x00\x90A\x00\x00\x10B\x00\x00\x10A\x00\x00\x00\x00\x00\x00\x00B\x00\x00\x00@\x00\x00@A\x00\x00pA\x00\x00\x00A\x00\x00\x04B\x00\x00\x80@\x00\x00\xa0@\x00\x00\xd0A\x00\x00PA\x00\x00\x98A\x00\x00\x14B\x00\x00\xc8A\x00\x00\xe0@\x00\x00\x1cB\x00\x00\xf8A\x00\x00\x80?\x00\x00\xe8A\x00\x00\xf0A\x00\x00\xc0A\x00\x00\xb0A\x00\x00\x88A\x00\x00\x80A\x00\x00\xb8A\x00\x00\xd8A\x00\x00\xc0@\x00\x00\x0cB\x00\x00\xe0A\x00\x00\xa8A\x00\x00\xa0A\x00\x00`A\x00\x00@@\x00\x00\x08B'
S'\x00\x00\x00\x00\x00\x00\x00\x00\x00\x00\x00\x00\x00\x00\x00\x00\x00\x00\x00\x00\x00\x00\x00\x00\x00\x00\x00\x00\x00\x00\x00\x00\x00\x00\x00\x00\x00\x00\x00\x00'
Ntbsg23
g826
(g827
g828
g829
S'b'
tRp954
(I1
(I40
I1
tg831
I00
S'\x00\x00\x80?\x00\x00\x80?\x00\x00\x00\x00\x00\x00\x00\x00\x00\x00\x80?\x00\x00\x80?\x00\x00\x80?\x00\x00\x80?\x00\x00\x80?\x00\x00\x80?\x00\x00\x80?\x00\x00\x80?\x00\x00\x80?\x00\x00\x80?\x00\x00\x80?\x00\x00\x80?\x00\x00\x80?\x00\x00\x80?\x00\x00\x80?\x00\x00\x80?\x00\x00\x80?\x00\x00\x80?\x00\x00\x80?\x00\x00\x80?\x00\x00\x80?\x00\x00\x80?\x00\x00\x80?\x00\x00\x80?\x00\x00\x80?\x00\x00\x80?\x00\x00\x80?\x00\x00\x80?\x00\x00\x80?\x00\x00\x80?\x00\x00\x80?\x00\x00\x80?\x00\x00\x80?\x00\x00\x80?\x00\x00\x80?\x00\x00\x80?'
S'\x00\x00\x00\x00\x00\x00\x00\x00\x00\x00\x00\x00\x00\x00\x00\x00\x00\x00\x00\x00\x00\x00\x00\x00\x00\x00\x00\x00\x00\x00\x00\x00\x00\x00\x00\x00\x00\x00\x00\x00'
NtbstRp955
(dp956
g840
(dp957
g825
I01
sg24
I01
sg23
I01
sg835
I01
sg22
I00
ssg842
g944
sg843
(lp958
g825
ag835
ag22
ag23
ag24
asg845
(lp959
I40
aI1
asbsg847
S'random'
p960
sg849
g850
(g828
(I0
tS'b'
tRp961
(I1
(I40
I1
tg67
I01
S'\x06\x00\x00\x00\x17\x00\x00\x00\x08\x00\x00\x00&\x00\x00\x00\r\x00\x00\x00\x0e\x00\x00\x00 \x00\x00\x00\x14\x00\x00\x00\x0b\x00\x00\x00\x05\x00\x00\x00\x00\x00\x00\x00\x01\x00\x00\x00\t\x00\x00\x00\x10\x00\x00\x00%\x00\x00\x00\n\x00\x00\x00\x1d\x00\x00\x00\x1c\x00\x00\x00\x03\x00\x00\x00\x11\x00\x00\x00$\x00\x00\x00#\x00\x00\x00\x1b\x00\x00\x00\x1e\x00\x00\x00\x1a\x00\x00\x00\x13\x00\x00\x00\x0f\x00\x00\x00\x1f\x00\x00\x00"\x00\x00\x00\x18\x00\x00\x00\x19\x00\x00\x00\x16\x00\x00\x00\x07\x00\x00\x00\x0c\x00\x00\x00\'\x00\x00\x00!\x00\x00\x00\x04\x00\x00\x00\x12\x00\x00\x00\x02\x00\x00\x00\x15\x00\x00\x00'
tbsg852
I01
sg853
I1
sg854
I-1
sg855
(lp962
g1
(g857
g823
(dp963
g314
g321
sg315
I1
sg310
g321
sg316
Vz
stRp964
ag1
(g857
g823
(dp965
g314
g321
sg315
I0
sg310
g311
sg316
Vz
stRp966
ag1
(g857
g823
(dp967
g314
g347
sg315
I1
sg310
g347
sg316
Vz
stRp968
ag1
(g857
g823
(dp969
g314
g324
sg315
I1
sg310
g324
sg316
Vz
stRp970
ag1
(g857
g823
(dp971
g314
g311
sg315
I1
sg310
g311
sg316
Vn
stRp972
ag1
(g857
g823
(dp973
g314
g321
sg315
I1
sg310
g321
sg316
Vz
stRp974
ag1
(g857
g823
(dp975
g314
g311
sg315
I1
sg310
g311
sg316
Vn
stRp976
ag1
(g857
g823
(dp977
g314
g324
sg315
I1
sg310
g324
sg316
Vx
stRp978
ag1
(g857
g823
(dp979
g314
g321
sg315
I1
sg310
g321
sg316
Vz
stRp980
ag1
(g857
g823
(dp981
g314
g311
sg315
I1
sg310
g311
sg316
Vn
stRp982
ag1
(g857
g823
(dp983
g314
g324
sg315
I1
sg310
g324
sg316
Vx
stRp984
ag1
(g857
g823
(dp985
g314
g321
sg315
I1
sg310
g321
sg316
Vz
stRp986
ag1
(g857
g823
(dp987
g314
g347
sg315
I0
sg310
g311
sg316
Vm
stRp988
ag1
(g857
g823
(dp989
g314
g311
sg315
I1
sg310
g311
sg316
Vn
stRp990
ag1
(g857
g823
(dp991
g314
g347
sg315
I1
sg310
g347
sg316
Vm
stRp992
ag1
(g857
g823
(dp993
g314
g347
sg315
I1
sg310
g347
sg316
Vm
stRp994
ag1
(g857
g823
(dp995
g314
g324
sg315
I1
sg310
g324
sg316
Vx
stRp996
ag1
(g857
g823
(dp997
g314
g321
sg315
I1
sg310
g321
sg316
Vz
stRp998
ag1
(g857
g823
(dp999
g314
g321
sg315
I1
sg310
g321
sg316
Vz
stRp1000
ag1
(g857
g823
(dp1001
g314
g347
sg315
I1
sg310
g347
sg316
Vm
stRp1002
ag1
(g857
g823
(dp1003
g314
g347
sg315
I1
sg310
g347
sg316
Vm
stRp1004
ag1
(g857
g823
(dp1005
g314
g321
sg315
I1
sg310
g321
sg316
Vz
stRp1006
ag1
(g857
g823
(dp1007
g314
g311
sg315
I1
sg310
g311
sg316
Vn
stRp1008
ag1
(g857
g823
(dp1009
g314
g324
sg315
I0
sg310
g321
sg316
Vx
stRp1010
ag1
(g857
g823
(dp1011
g314
g321
sg315
I1
sg310
g321
sg316
Vz
stRp1012
ag1
(g857
g823
(dp1013
g314
g311
sg315
I1
sg310
g311
sg316
Vn
stRp1014
ag1
(g857
g823
(dp1015
g314
g347
sg315
I1
sg310
g347
sg316
Vm
stRp1016
ag1
(g857
g823
(dp1017
g314
g324
sg315
I1
sg310
g324
sg316
Vx
stRp1018
ag1
(g857
g823
(dp1019
g314
g311
sg315
I1
sg310
g311
sg316
Vn
stRp1020
ag1
(g857
g823
(dp1021
g314
g321
sg315
I1
sg310
g321
sg316
Vz
stRp1022
ag1
(g857
g823
(dp1023
g314
g324
sg315
I1
sg310
g324
sg316
Vx
stRp1024
ag1
(g857
g823
(dp1025
g314
g347
sg315
I1
sg310
g347
sg316
Vm
stRp1026
ag1
(g857
g823
(dp1027
g314
g347
sg315
I1
sg310
g347
sg316
Vm
stRp1028
ag1
(g857
g823
(dp1029
g314
g324
sg315
I1
sg310
g324
sg316
Vx
stRp1030
ag1
(g857
g823
(dp1031
g314
g311
sg315
I0
sg310
g347
sg316
Vn
stRp1032
ag1
(g857
g823
(dp1033
g314
g311
sg315
I1
sg310
g311
sg316
Vn
stRp1034
ag1
(g857
g823
(dp1035
g314
g347
sg315
I1
sg310
g347
sg316
Vm
stRp1036
ag1
(g857
g823
(dp1037
g314
g347
sg315
I1
sg310
g347
sg316
Vm
stRp1038
ag1
(g857
g823
(dp1039
g314
g324
sg315
I1
sg310
g324
sg316
Vx
stRp1040
ag1
(g857
g823
(dp1041
g314
g311
sg315
I1
sg310
g311
sg316
Vn
stRp1042
asg938
Nsg939
g555
sg940
I40
sg941
I0
sg942
I40
sg943
I01
sbag1
(g811
g3
NtRp1043
(dp1044
g814
V<PsychoPy2experiment version="1.82.01" encoding="utf-8">\u000a  <Settings>\u000a    <Param name="Show mouse" val="False" valType="bool" updates="None"/>\u000a    <Param name="Data filename" val="'data/%s_%s_%s' %(expInfo['participant'], expName, expInfo['date'])" valType="code" updates="None"/>\u000a    <Param name="Monitor" val="testMonitor" valType="str" updates="None"/>\u000a    <Param name="Enable Escape" val="True" valType="bool" updates="None"/>\u000a    <Param name="color" val="$[0,0,0]" valType="str" updates="None"/>\u000a    <Param name="Window size (pixels)" val="[1024, 768]" valType="code" updates="None"/>\u000a    <Param name="Full-screen window" val="True" valType="bool" updates="None"/>\u000a    <Param name="colorSpace" val="rgb" valType="str" updates="None"/>\u000a    <Param name="Experiment info" val="{'participant':'', 'session':'001'}" valType="code" updates="None"/>\u000a    <Param name="Save csv file" val="False" valType="bool" updates="None"/>\u000a    <Param name="Show info dlg" val="True" valType="bool" updates="None"/>\u000a    <Param name="Save wide csv file" val="True" valType="bool" updates="None"/>\u000a    <Param name="Save psydat file" val="True" valType="bool" updates="None"/>\u000a    <Param name="expName" val="stroop short" valType="str" updates="None"/>\u000a    <Param name="logging level" val="exp" valType="code" updates="None"/>\u000a    <Param name="blendMode" val="avg" valType="str" updates="None"/>\u000a    <Param name="Save excel file" val="False" valType="bool" updates="None"/>\u000a    <Param name="Units" val="use prefs" valType="str" updates="None"/>\u000a    <Param name="Save log file" val="True" valType="bool" updates="None"/>\u000a    <Param name="Screen" val="1" valType="num" updates="None"/>\u000a  </Settings>\u000a  <Routines>\u000a    <Routine name="feedback">\u000a      <CodeComponent name="code_2">\u000a        <Param name="Begin Experiment" val="#msg variable just needs some value at start&#10;msg=''" valType="extendedCode" updates="constant"/>\u000a        <Param name="name" val="code_2" valType="code" updates="None"/>\u000a        <Param name="Begin Routine" val="if resp.corr:#stored on last run routine&#10;  msg=&quot;Correct! :)&quot;&#10;else:&#10;  msg=&quot;Incorrect! :(&quot;" valType="extendedCode" updates="constant"/>\u000a        <Param name="End Routine" val="" valType="extendedCode" updates="constant"/>\u000a        <Param name="End Experiment" val="" valType="extendedCode" updates="constant"/>\u000a        <Param name="Each Frame" val="" valType="extendedCode" updates="constant"/>\u000a      </CodeComponent>\u000a      <TextComponent name="text_4">\u000a        <Param name="opacity" val="1" valType="code" updates="constant"/>\u000a        <Param name="colorSpace" val="rgb" valType="str" updates="constant"/>\u000a        <Param name="name" val="text_4" valType="code" updates="None"/>\u000a        <Param name="wrapWidth" val="" valType="code" updates="constant"/>\u000a        <Param name="color" val="white" valType="str" updates="constant"/>\u000a        <Param name="text" val="$msg" valType="str" updates="set every repeat"/>\u000a        <Param name="stopVal" val="1.0" valType="code" updates="constant"/>\u000a        <Param name="durationEstim" val="" valType="code" updates="None"/>\u000a        <Param name="pos" val="[0, 0]" valType="code" updates="constant"/>\u000a        <Param name="flip" val="" valType="str" updates="constant"/>\u000a        <Param name="startEstim" val="" valType="code" updates="None"/>\u000a        <Param name="units" val="from exp settings" valType="str" updates="None"/>\u000a        <Param name="startType" val="time (s)" valType="str" updates="None"/>\u000a        <Param name="ori" val="0" valType="code" updates="constant"/>\u000a        <Param name="stopType" val="duration (s)" valType="str" updates="None"/>\u000a        <Param name="startVal" val="0.0" valType="code" updates="None"/>\u000a        <Param name="font" val="Arial" valType="str" updates="constant"/>\u000a        <Param name="letterHeight" val="0.1" valType="code" updates="constant"/>\u000a      </TextComponent>\u000a    </Routine>\u000a    <Routine name="introduction">\u000a      <TextComponent name="intro_text">\u000a        <Param name="opacity" val="1" valType="code" updates="constant"/>\u000a        <Param name="colorSpace" val="rgb" valType="str" updates="constant"/>\u000a        <Param name="name" val="intro_text" valType="code" updates="None"/>\u000a        <Param name="wrapWidth" val="" valType="code" updates="constant"/>\u000a        <Param name="color" val="white" valType="str" updates="constant"/>\u000a        <Param name="text" val="Welcome to Stroop Task - Short Paradigm!" valType="str" updates="constant"/>\u000a        <Param name="stopVal" val="" valType="code" updates="constant"/>\u000a        <Param name="durationEstim" val="" valType="code" updates="None"/>\u000a        <Param name="pos" val="[0, 0]" valType="code" updates="constant"/>\u000a        <Param name="flip" val="" valType="str" updates="constant"/>\u000a        <Param name="startEstim" val="" valType="code" updates="None"/>\u000a        <Param name="units" val="from exp settings" valType="str" updates="None"/>\u000a        <Param name="startType" val="time (s)" valType="str" updates="None"/>\u000a        <Param name="ori" val="0" valType="code" updates="constant"/>\u000a        <Param name="stopType" val="duration (s)" valType="str" updates="None"/>\u000a        <Param name="startVal" val="0.0" valType="code" updates="None"/>\u000a        <Param name="font" val="Arial" valType="str" updates="constant"/>\u000a        <Param name="letterHeight" val="0.1" valType="code" updates="constant"/>\u000a      </TextComponent>\u000a      <KeyboardComponent name="key_resp_3">\u000a        <Param name="correctAns" val="" valType="str" updates="constant"/>\u000a        <Param name="storeCorrect" val="False" valType="bool" updates="constant"/>\u000a        <Param name="name" val="key_resp_3" valType="code" updates="None"/>\u000a        <Param name="stopVal" val="" valType="code" updates="constant"/>\u000a        <Param name="durationEstim" val="" valType="code" updates="None"/>\u000a        <Param name="forceEndRoutine" val="True" valType="bool" updates="constant"/>\u000a        <Param name="startEstim" val="" valType="code" updates="None"/>\u000a        <Param name="discard previous" val="True" valType="bool" updates="constant"/>\u000a        <Param name="startType" val="time (s)" valType="str" updates="None"/>\u000a        <Param name="allowedKeys" val="'space'" valType="code" updates="constant"/>\u000a        <Param name="stopType" val="duration (s)" valType="str" updates="None"/>\u000a        <Param name="startVal" val="1" valType="code" updates="None"/>\u000a        <Param name="store" val="last key" valType="str" updates="constant"/>\u000a      </KeyboardComponent>\u000a    </Routine>\u000a    <Routine name="instruction">\u000a      <TextComponent name="text">\u000a        <Param name="opacity" val="1" valType="code" updates="constant"/>\u000a        <Param name="colorSpace" val="rgb" valType="str" updates="constant"/>\u000a        <Param name="name" val="text" valType="code" updates="None"/>\u000a        <Param name="wrapWidth" val="" valType="code" updates="constant"/>\u000a        <Param name="color" val="white" valType="str" updates="constant"/>\u000a        <Param name="text" val="INSTRUCTIONS&#10;&#10;Indicate the color of the words&#10;Red: &quot;z&quot;   &#10;Yellow: &quot;x&quot;&#10;Green: &quot;n&quot;&#10;Blue: &quot;m&quot;&#10;&#10;Please give quick and exact answer&#10;&#10;(Press Space to start)" valType="str" updates="constant"/>\u000a        <Param name="stopVal" val="" valType="code" updates="constant"/>\u000a        <Param name="durationEstim" val="" valType="code" updates="None"/>\u000a        <Param name="pos" val="[0, 0]" valType="code" updates="constant"/>\u000a        <Param name="flip" val="" valType="str" updates="constant"/>\u000a        <Param name="startEstim" val="" valType="code" updates="None"/>\u000a        <Param name="units" val="from exp settings" valType="str" updates="None"/>\u000a        <Param name="startType" val="time (s)" valType="str" updates="None"/>\u000a        <Param name="ori" val="0" valType="code" updates="constant"/>\u000a        <Param name="stopType" val="duration (s)" valType="str" updates="None"/>\u000a        <Param name="startVal" val="0.0" valType="code" updates="None"/>\u000a        <Param name="font" val="Arial" valType="str" updates="constant"/>\u000a        <Param name="letterHeight" val="0.1" valType="code" updates="constant"/>\u000a      </TextComponent>\u000a      <KeyboardComponent name="key_resp_2">\u000a        <Param name="correctAns" val="" valType="str" updates="constant"/>\u000a        <Param name="storeCorrect" val="False" valType="bool" updates="constant"/>\u000a        <Param name="name" val="key_resp_2" valType="code" updates="None"/>\u000a        <Param name="stopVal" val="" valType="code" updates="constant"/>\u000a        <Param name="durationEstim" val="" valType="code" updates="None"/>\u000a        <Param name="forceEndRoutine" val="True" valType="bool" updates="constant"/>\u000a        <Param name="startEstim" val="" valType="code" updates="None"/>\u000a        <Param name="discard previous" val="True" valType="bool" updates="constant"/>\u000a        <Param name="startType" val="time (s)" valType="str" updates="None"/>\u000a        <Param name="allowedKeys" val="'space'" valType="code" updates="constant"/>\u000a        <Param name="stopType" val="duration (s)" valType="str" updates="None"/>\u000a        <Param name="startVal" val="1" valType="code" updates="None"/>\u000a        <Param name="store" val="last key" valType="str" updates="constant"/>\u000a      </KeyboardComponent>\u000a    </Routine>\u000a    <Routine name="rest">\u000a      <TextComponent name="rest_text">\u000a        <Param name="opacity" val="1" valType="code" updates="constant"/>\u000a        <Param name="colorSpace" val="rgb" valType="str" updates="constant"/>\u000a        <Param name="name" val="rest_text" valType="code" updates="None"/>\u000a        <Param name="wrapWidth" val="" valType="code" updates="constant"/>\u000a        <Param name="color" val="white" valType="str" updates="constant"/>\u000a        <Param name="text" val="+" valType="str" updates="set every repeat"/>\u000a        <Param name="stopVal" val="60" valType="code" updates="constant"/>\u000a        <Param name="durationEstim" val="" valType="code" updates="None"/>\u000a        <Param name="pos" val="[0, 0]" valType="code" updates="constant"/>\u000a        <Param name="flip" val="" valType="str" updates="constant"/>\u000a        <Param name="startEstim" val="" valType="code" updates="None"/>\u000a        <Param name="units" val="from exp settings" valType="str" updates="None"/>\u000a        <Param name="startType" val="time (s)" valType="str" updates="None"/>\u000a        <Param name="ori" val="0" valType="code" updates="constant"/>\u000a        <Param name="stopType" val="duration (s)" valType="str" updates="None"/>\u000a        <Param name="startVal" val="0.0" valType="code" updates="None"/>\u000a        <Param name="font" val="Arial" valType="str" updates="constant"/>\u000a        <Param name="letterHeight" val="0.1" valType="code" updates="constant"/>\u000a      </TextComponent>\u000a      <KeyboardComponent name="key_resp_8">\u000a        <Param name="correctAns" val="" valType="str" updates="constant"/>\u000a        <Param name="storeCorrect" val="False" valType="bool" updates="constant"/>\u000a        <Param name="name" val="key_resp_8" valType="code" updates="None"/>\u000a        <Param name="stopVal" val="60" valType="code" updates="constant"/>\u000a        <Param name="durationEstim" val="" valType="code" updates="None"/>\u000a        <Param name="forceEndRoutine" val="False" valType="bool" updates="constant"/>\u000a        <Param name="startEstim" val="" valType="code" updates="None"/>\u000a        <Param name="discard previous" val="True" valType="bool" updates="constant"/>\u000a        <Param name="startType" val="time (s)" valType="str" updates="None"/>\u000a        <Param name="allowedKeys" val="'space'" valType="code" updates="constant"/>\u000a        <Param name="stopType" val="duration (s)" valType="str" updates="None"/>\u000a        <Param name="startVal" val="0.0" valType="code" updates="None"/>\u000a        <Param name="store" val="last key" valType="str" updates="constant"/>\u000a      </KeyboardComponent>\u000a    </Routine>\u000a    <Routine name="ending">\u000a      <TextComponent name="ending_text">\u000a        <Param name="opacity" val="1" valType="code" updates="constant"/>\u000a        <Param name="colorSpace" val="rgb" valType="str" updates="constant"/>\u000a        <Param name="name" val="ending_text" valType="code" updates="None"/>\u000a        <Param name="wrapWidth" val="" valType="code" updates="constant"/>\u000a        <Param name="color" val="white" valType="str" updates="constant"/>\u000a        <Param name="text" val="Thank you for your participation :)" valType="str" updates="constant"/>\u000a        <Param name="stopVal" val="10" valType="code" updates="constant"/>\u000a        <Param name="durationEstim" val="" valType="code" updates="None"/>\u000a        <Param name="pos" val="[0, 0]" valType="code" updates="constant"/>\u000a        <Param name="flip" val="" valType="str" updates="constant"/>\u000a        <Param name="startEstim" val="" valType="code" updates="None"/>\u000a        <Param name="units" val="from exp settings" valType="str" updates="None"/>\u000a        <Param name="startType" val="time (s)" valType="str" updates="None"/>\u000a        <Param name="ori" val="0" valType="code" updates="constant"/>\u000a        <Param name="stopType" val="duration (s)" valType="str" updates="None"/>\u000a        <Param name="startVal" val="0.0" valType="code" updates="None"/>\u000a        <Param name="font" val="Arial" valType="str" updates="constant"/>\u000a        <Param name="letterHeight" val="0.1" valType="code" updates="constant"/>\u000a      </TextComponent>\u000a      <KeyboardComponent name="key_resp_9">\u000a        <Param name="correctAns" val="" valType="str" updates="constant"/>\u000a        <Param name="storeCorrect" val="False" valType="bool" updates="constant"/>\u000a        <Param name="name" val="key_resp_9" valType="code" updates="None"/>\u000a        <Param name="stopVal" val="" valType="code" updates="constant"/>\u000a        <Param name="durationEstim" val="" valType="code" updates="None"/>\u000a        <Param name="forceEndRoutine" val="True" valType="bool" updates="constant"/>\u000a        <Param name="startEstim" val="" valType="code" updates="None"/>\u000a        <Param name="discard previous" val="True" valType="bool" updates="constant"/>\u000a        <Param name="startType" val="time (s)" valType="str" updates="None"/>\u000a        <Param name="allowedKeys" val="'y','n','left','right','space'" valType="code" updates="constant"/>\u000a        <Param name="stopType" val="duration (s)" valType="str" updates="None"/>\u000a        <Param name="startVal" val="1" valType="code" updates="None"/>\u000a        <Param name="store" val="last key" valType="str" updates="constant"/>\u000a      </KeyboardComponent>\u000a    </Routine>\u000a    <Routine name="trial">\u000a      <StaticComponent name="ISI">\u000a        <Param name="code" val="" valType="code" updates="None"/>\u000a        <Param name="name" val="ISI" valType="code" updates="None"/>\u000a        <Param name="stopVal" val="0.5" valType="code" updates="constant"/>\u000a        <Param name="durationEstim" val="" valType="code" updates="None"/>\u000a        <Param name="startEstim" val="" valType="code" updates="None"/>\u000a        <Param name="startType" val="time (s)" valType="str" updates="None"/>\u000a        <Param name="stopType" val="duration (s)" valType="str" updates="None"/>\u000a        <Param name="startVal" val="0.0" valType="code" updates="None"/>\u000a      </StaticComponent>\u000a      <TextComponent name="trial_text">\u000a        <Param name="opacity" val="1" valType="code" updates="constant"/>\u000a        <Param name="colorSpace" val="rgb" valType="str" updates="constant"/>\u000a        <Param name="name" val="trial_text" valType="code" updates="None"/>\u000a        <Param name="wrapWidth" val="" valType="code" updates="constant"/>\u000a        <Param name="color" val="$color" valType="str" updates="set every repeat"/>\u000a        <Param name="text" val="$word" valType="str" updates="set every repeat"/>\u000a        <Param name="stopVal" val="1.3" valType="code" updates="constant"/>\u000a        <Param name="durationEstim" val="" valType="code" updates="None"/>\u000a        <Param name="pos" val="[0, 0]" valType="code" updates="constant"/>\u000a        <Param name="flip" val="" valType="str" updates="constant"/>\u000a        <Param name="startEstim" val="" valType="code" updates="None"/>\u000a        <Param name="units" val="from exp settings" valType="str" updates="None"/>\u000a        <Param name="startType" val="time (s)" valType="str" updates="None"/>\u000a        <Param name="ori" val="0" valType="code" updates="constant"/>\u000a        <Param name="stopType" val="duration (s)" valType="str" updates="None"/>\u000a        <Param name="startVal" val="0.8" valType="code" updates="None"/>\u000a        <Param name="font" val="Arial" valType="str" updates="constant"/>\u000a        <Param name="letterHeight" val="0.1" valType="code" updates="constant"/>\u000a      </TextComponent>\u000a      <KeyboardComponent name="resp">\u000a        <Param name="correctAns" val="$corrans" valType="str" updates="constant"/>\u000a        <Param name="storeCorrect" val="True" valType="bool" updates="constant"/>\u000a        <Param name="name" val="resp" valType="code" updates="None"/>\u000a        <Param name="stopVal" val="2.2" valType="code" updates="constant"/>\u000a        <Param name="durationEstim" val="" valType="code" updates="None"/>\u000a        <Param name="forceEndRoutine" val="False" valType="bool" updates="constant"/>\u000a        <Param name="startEstim" val="" valType="code" updates="None"/>\u000a        <Param name="discard previous" val="True" valType="bool" updates="constant"/>\u000a        <Param name="startType" val="time (s)" valType="str" updates="None"/>\u000a        <Param name="allowedKeys" val="'z','x','n','m'" valType="code" updates="constant"/>\u000a        <Param name="stopType" val="duration (s)" valType="str" updates="None"/>\u000a        <Param name="startVal" val="0.8" valType="code" updates="None"/>\u000a        <Param name="store" val="last key" valType="str" updates="constant"/>\u000a      </KeyboardComponent>\u000a      <TextComponent name="fixationtrial">\u000a        <Param name="opacity" val="1" valType="code" updates="constant"/>\u000a        <Param name="colorSpace" val="rgb" valType="str" updates="constant"/>\u000a        <Param name="name" val="fixationtrial" valType="code" updates="None"/>\u000a        <Param name="wrapWidth" val="" valType="code" updates="constant"/>\u000a        <Param name="color" val="white" valType="str" updates="constant"/>\u000a        <Param name="text" val="+" valType="str" updates="constant"/>\u000a        <Param name="stopVal" val="0.8" valType="code" updates="constant"/>\u000a        <Param name="durationEstim" val="" valType="code" updates="None"/>\u000a        <Param name="pos" val="[0, 0]" valType="code" updates="constant"/>\u000a        <Param name="flip" val="" valType="str" updates="constant"/>\u000a        <Param name="startEstim" val="" valType="code" updates="None"/>\u000a        <Param name="units" val="from exp settings" valType="str" updates="None"/>\u000a        <Param name="startType" val="time (s)" valType="str" updates="None"/>\u000a        <Param name="ori" val="0" valType="code" updates="constant"/>\u000a        <Param name="stopType" val="duration (s)" valType="str" updates="None"/>\u000a        <Param name="startVal" val="0.0" valType="code" updates="None"/>\u000a        <Param name="font" val="Arial" valType="str" updates="constant"/>\u000a        <Param name="letterHeight" val="0.1" valType="code" updates="constant"/>\u000a      </TextComponent>\u000a    </Routine>\u000a    <Routine name="maintask">\u000a      <TextComponent name="text_2">\u000a        <Param name="opacity" val="1" valType="code" updates="constant"/>\u000a        <Param name="colorSpace" val="rgb" valType="str" updates="constant"/>\u000a        <Param name="name" val="text_2" valType="code" updates="None"/>\u000a        <Param name="wrapWidth" val="" valType="code" updates="constant"/>\u000a        <Param name="color" val="$color" valType="str" updates="set every repeat"/>\u000a        <Param name="text" val="$word" valType="str" updates="set every repeat"/>\u000a        <Param name="stopVal" val="1.3" valType="code" updates="constant"/>\u000a        <Param name="durationEstim" val="" valType="code" updates="None"/>\u000a        <Param name="pos" val="[0, 0]" valType="code" updates="constant"/>\u000a        <Param name="flip" val="" valType="str" updates="constant"/>\u000a        <Param name="startEstim" val="" valType="code" updates="None"/>\u000a        <Param name="units" val="from exp settings" valType="str" updates="None"/>\u000a        <Param name="startType" val="time (s)" valType="str" updates="None"/>\u000a        <Param name="ori" val="0" valType="code" updates="constant"/>\u000a        <Param name="stopType" val="duration (s)" valType="str" updates="None"/>\u000a        <Param name="startVal" val="0.8" valType="code" updates="None"/>\u000a        <Param name="font" val="Arial" valType="str" updates="constant"/>\u000a        <Param name="letterHeight" val="0.1" valType="code" updates="constant"/>\u000a      </TextComponent>\u000a      <TextComponent name="fixationmain">\u000a        <Param name="opacity" val="1" valType="code" updates="constant"/>\u000a        <Param name="colorSpace" val="rgb" valType="str" updates="constant"/>\u000a        <Param name="name" val="fixationmain" valType="code" updates="None"/>\u000a        <Param name="wrapWidth" val="" valType="code" updates="constant"/>\u000a        <Param name="color" val="white" valType="str" updates="constant"/>\u000a        <Param name="text" val="+" valType="str" updates="constant"/>\u000a        <Param name="stopVal" val="0.8" valType="code" updates="constant"/>\u000a        <Param name="durationEstim" val="" valType="code" updates="None"/>\u000a        <Param name="pos" val="[0, 0]" valType="code" updates="constant"/>\u000a        <Param name="flip" val="" valType="str" updates="constant"/>\u000a        <Param name="startEstim" val="" valType="code" updates="None"/>\u000a        <Param name="units" val="from exp settings" valType="str" updates="None"/>\u000a        <Param name="startType" val="time (s)" valType="str" updates="None"/>\u000a        <Param name="ori" val="0" valType="code" updates="constant"/>\u000a        <Param name="stopType" val="duration (s)" valType="str" updates="None"/>\u000a        <Param name="startVal" val="0.0" valType="code" updates="None"/>\u000a        <Param name="font" val="Arial" valType="str" updates="constant"/>\u000a        <Param name="letterHeight" val="0.1" valType="code" updates="constant"/>\u000a      </TextComponent>\u000a      <KeyboardComponent name="key_resp_7">\u000a        <Param name="correctAns" val="$corrans" valType="str" updates="constant"/>\u000a        <Param name="storeCorrect" val="True" valType="bool" updates="constant"/>\u000a        <Param name="name" val="key_resp_7" valType="code" updates="None"/>\u000a        <Param name="stopVal" val="2.2" valType="code" updates="constant"/>\u000a        <Param name="durationEstim" val="" valType="code" updates="None"/>\u000a        <Param name="forceEndRoutine" val="False" valType="bool" updates="constant"/>\u000a        <Param name="startEstim" val="" valType="code" updates="None"/>\u000a        <Param name="discard previous" val="True" valType="bool" updates="constant"/>\u000a        <Param name="startType" val="time (s)" valType="str" updates="None"/>\u000a        <Param name="allowedKeys" val="'z','x','n','m'" valType="code" updates="constant"/>\u000a        <Param name="stopType" val="duration (s)" valType="str" updates="None"/>\u000a        <Param name="startVal" val="0.8" valType="code" updates="None"/>\u000a        <Param name="store" val="last key" valType="str" updates="constant"/>\u000a      </KeyboardComponent>\u000a      <SoundComponent name="sound_1">\u000a        <Param name="sound" val="chopin2.wav" valType="str" updates="constant"/>\u000a        <Param name="volume" val="1" valType="code" updates="constant"/>\u000a        <Param name="name" val="sound_1" valType="code" updates="None"/>\u000a        <Param name="stopVal" val="1.0" valType="code" updates="constant"/>\u000a        <Param name="durationEstim" val="" valType="code" updates="None"/>\u000a        <Param name="startEstim" val="" valType="code" updates="None"/>\u000a        <Param name="startType" val="time (s)" valType="str" updates="None"/>\u000a        <Param name="stopType" val="duration (s)" valType="str" updates="None"/>\u000a        <Param name="startVal" val="0.0" valType="code" updates="None"/>\u000a      </SoundComponent>\u000a    </Routine>\u000a    <Routine name="fixation">\u000a      <TextComponent name="text_3">\u000a        <Param name="opacity" val="1" valType="code" updates="constant"/>\u000a        <Param name="colorSpace" val="rgb" valType="str" updates="constant"/>\u000a        <Param name="name" val="text_3" valType="code" updates="None"/>\u000a        <Param name="wrapWidth" val="" valType="code" updates="constant"/>\u000a        <Param name="color" val="white" valType="str" updates="constant"/>\u000a        <Param name="text" val="+" valType="str" updates="constant"/>\u000a        <Param name="stopVal" val="0.8" valType="code" updates="constant"/>\u000a        <Param name="durationEstim" val="" valType="code" updates="None"/>\u000a        <Param name="pos" val="[0, 0]" valType="code" updates="constant"/>\u000a        <Param name="flip" val="" valType="str" updates="constant"/>\u000a        <Param name="startEstim" val="" valType="code" updates="None"/>\u000a        <Param name="units" val="from exp settings" valType="str" updates="None"/>\u000a        <Param name="startType" val="time (s)" valType="str" updates="None"/>\u000a        <Param name="ori" val="0" valType="code" updates="constant"/>\u000a        <Param name="stopType" val="duration (s)" valType="str" updates="None"/>\u000a        <Param name="startVal" val="0.0" valType="code" updates="None"/>\u000a        <Param name="font" val="Arial" valType="str" updates="constant"/>\u000a        <Param name="letterHeight" val="0.1" valType="code" updates="constant"/>\u000a      </TextComponent>\u000a      <KeyboardComponent name="key_resp_5">\u000a        <Param name="correctAns" val="$corrans" valType="str" updates="constant"/>\u000a        <Param name="storeCorrect" val="True" valType="bool" updates="constant"/>\u000a        <Param name="name" val="key_resp_5" valType="code" updates="None"/>\u000a        <Param name="stopVal" val="" valType="code" updates="constant"/>\u000a        <Param name="durationEstim" val="" valType="code" updates="None"/>\u000a        <Param name="forceEndRoutine" val="True" valType="bool" updates="constant"/>\u000a        <Param name="startEstim" val="" valType="code" updates="None"/>\u000a        <Param name="discard previous" val="True" valType="bool" updates="constant"/>\u000a        <Param name="startType" val="time (s)" valType="str" updates="None"/>\u000a        <Param name="allowedKeys" val="'z','x','n','m'" valType="code" updates="constant"/>\u000a        <Param name="stopType" val="duration (s)" valType="str" updates="None"/>\u000a        <Param name="startVal" val="0.8" valType="code" updates="None"/>\u000a        <Param name="store" val="last key" valType="str" updates="constant"/>\u000a      </KeyboardComponent>\u000a    </Routine>\u000a    <Routine name="instruction2">\u000a      <TextComponent name="instruction2_text">\u000a        <Param name="opacity" val="1" valType="code" updates="constant"/>\u000a        <Param name="colorSpace" val="rgb" valType="str" updates="constant"/>\u000a        <Param name="name" val="instruction2_text" valType="code" updates="None"/>\u000a        <Param name="wrapWidth" val="" valType="code" updates="constant"/>\u000a        <Param name="color" val="white" valType="str" updates="constant"/>\u000a        <Param name="text" val="Are you ready ?&#10;&#10;You have 3s for each word" valType="str" updates="constant"/>\u000a        <Param name="stopVal" val="" valType="code" updates="constant"/>\u000a        <Param name="durationEstim" val="" valType="code" updates="None"/>\u000a        <Param name="pos" val="[0, 0]" valType="code" updates="constant"/>\u000a        <Param name="flip" val="" valType="str" updates="constant"/>\u000a        <Param name="startEstim" val="" valType="code" updates="None"/>\u000a        <Param name="units" val="from exp settings" valType="str" updates="None"/>\u000a        <Param name="startType" val="time (s)" valType="str" updates="None"/>\u000a        <Param name="ori" val="0" valType="code" updates="constant"/>\u000a        <Param name="stopType" val="duration (s)" valType="str" updates="None"/>\u000a        <Param name="startVal" val="0.0" valType="code" updates="None"/>\u000a        <Param name="font" val="Arial" valType="str" updates="constant"/>\u000a        <Param name="letterHeight" val="0.1" valType="code" updates="constant"/>\u000a      </TextComponent>\u000a      <KeyboardComponent name="key_resp_4">\u000a        <Param name="correctAns" val="" valType="str" updates="constant"/>\u000a        <Param name="storeCorrect" val="False" valType="bool" updates="constant"/>\u000a        <Param name="name" val="key_resp_4" valType="code" updates="None"/>\u000a        <Param name="stopVal" val="" valType="code" updates="constant"/>\u000a        <Param name="durationEstim" val="" valType="code" updates="None"/>\u000a        <Param name="forceEndRoutine" val="True" valType="bool" updates="constant"/>\u000a        <Param name="startEstim" val="" valType="code" updates="None"/>\u000a        <Param name="discard previous" val="True" valType="bool" updates="constant"/>\u000a        <Param name="startType" val="time (s)" valType="str" updates="None"/>\u000a        <Param name="allowedKeys" val="'space'" valType="code" updates="constant"/>\u000a        <Param name="stopType" val="duration (s)" valType="str" updates="None"/>\u000a        <Param name="startVal" val="1" valType="code" updates="None"/>\u000a        <Param name="store" val="last key" valType="str" updates="constant"/>\u000a      </KeyboardComponent>\u000a    </Routine>\u000a  </Routines>\u000a  <Flow>\u000a    <Routine name="introduction"/>\u000a    <Routine name="instruction"/>\u000a    <Routine name="instruction2"/>\u000a    <Routine name="rest"/>\u000a    <LoopInitiator loopType="TrialHandler" name="inverse1">\u000a      <Param name="conditionsFile" val="Stroopmain-short-in-10event x 4.xlsx" valType="str" updates="None"/>\u000a      <Param name="name" val="inverse1" valType="code" updates="None"/>\u000a      <Param name="isTrials" val="True" valType="bool" updates="None"/>\u000a      <Param name="random seed" val="" valType="code" updates="None"/>\u000a      <Param name="loopType" val="sequential" valType="str" updates="None"/>\u000a      <Param name="nReps" val="1" valType="code" updates="None"/>\u000a      <Param name="endPoints" val="[0, 1]" valType="num" updates="None"/>\u000a      <Param name="conditions" val="[{u'color': u'RED', u'congruent': 0, u'word': u'YELLOW', u'corrans': u'z'}, {u'color': u'RED', u'congruent': 1, u'word': u'RED', u'corrans': u'z'}, {u'color': u'BLUE', u'congruent': 0, u'word': u'GREEN', u'corrans': u'z'}, {u'color': u'YELLOW', u'congruent': 0, u'word': u'RED', u'corrans': u'z'}, {u'color': u'GREEN', u'congruent': 0, u'word': u'RED', u'corrans': u'n'}, {u'color': u'RED', u'congruent': 0, u'word': u'BLUE', u'corrans': u'z'}, {u'color': u'GREEN', u'congruent': 0, u'word': u'YELLOW', u'corrans': u'n'}, {u'color': u'YELLOW', u'congruent': 0, u'word': u'BLUE', u'corrans': u'x'}, {u'color': u'GREEN', u'congruent': 0, u'word': u'BLUE', u'corrans': u'n'}, {u'color': u'RED', u'congruent': 0, u'word': u'GREEN', u'corrans': u'z'}, {u'color': u'YELLOW', u'congruent': 0, u'word': u'BLUE', u'corrans': u'x'}, {u'color': u'RED', u'congruent': 0, u'word': u'RED', u'corrans': u'z'}, {u'color': u'BLUE', u'congruent': 1, u'word': u'BLUE', u'corrans': u'm'}, {u'color': u'GREEN', u'congruent': 0, u'word': u'RED', u'corrans': u'n'}, {u'color': u'BLUE', u'congruent': 0, u'word': u'RED', u'corrans': u'm'}, {u'color': u'BLUE', u'congruent': 0, u'word': u'GREEN', u'corrans': u'm'}, {u'color': u'YELLOW', u'congruent': 0, u'word': u'GREEN', u'corrans': u'x'}, {u'color': u'RED', u'congruent': 0, u'word': u'YELLOW', u'corrans': u'z'}, {u'color': u'RED', u'congruent': 0, u'word': u'BLUE', u'corrans': u'z'}, {u'color': u'GREEN', u'congruent': 0, u'word': u'RED', u'corrans': u'm'}, {u'color': u'BLUE', u'congruent': 0, u'word': u'GREEN', u'corrans': u'm'}, {u'color': u'RED', u'congruent': 0, u'word': u'YELLOW', u'corrans': u'z'}, {u'color': u'GREEN', u'congruent': 0, u'word': u'BLUE', u'corrans': u'n'}, {u'color': u'YELLOW', u'congruent': 1, u'word': u'YELLOW', u'corrans': u'x'}, {u'color': u'RED', u'congruent': 0, u'word': u'BLUE', u'corrans': u'z'}, {u'color': u'GREEN', u'congruent': 0, u'word': u'RED', u'corrans': u'n'}, {u'color': u'BLUE', u'congruent': 0, u'word': u'GREEN', u'corrans': u'm'}, {u'color': u'YELLOW', u'congruent': 0, u'word': u'GREEN', u'corrans': u'x'}, {u'color': u'GREEN', u'congruent': 0, u'word': u'YELLOW', u'corrans': u'n'}, {u'color': u'RED', u'congruent': 0, u'word': u'YELLOW', u'corrans': u'z'}, {u'color': u'YELLOW', u'congruent': 0, u'word': u'GREEN', u'corrans': u'x'}, {u'color': u'BLUE', u'congruent': 0, u'word': u'YELLOW', u'corrans': u'm'}, {u'color': u'BLUE', u'congruent': 0, u'word': u'RED', u'corrans': u'm'}, {u'color': u'YELLOW', u'congruent': 0, u'word': u'GREEN', u'corrans': u'x'}, {u'color': u'GREEN', u'congruent': 1, u'word': u'GREEN', u'corrans': u'n'}, {u'color': u'GREEN', u'congruent': 0, u'word': u'RED', u'corrans': u'n'}, {u'color': u'BLUE', u'congruent': 0, u'word': u'GREEN', u'corrans': u'm'}, {u'color': u'BLUE', u'congruent': 0, u'word': u'YELLOW', u'corrans': u'm'}, {u'color': u'YELLOW', u'congruent': 0, u'word': u'GREEN', u'corrans': u'x'}, {u'color': u'RED', u'congruent': 0, u'word': u'BLUE', u'corrans': u'z'}]" valType="str" updates="None"/>\u000a      <Param name="Selected rows" val="" valType="str" updates="None"/>\u000a    </LoopInitiator>\u000a    <Routine name="maintask"/>\u000a    <LoopTerminator name="inverse1"/>\u000a    <Routine name="rest"/>\u000a    <LoopInitiator loopType="TrialHandler" name="conven1">\u000a      <Param name="conditionsFile" val="Stroopmain-short-con-10event x 4.xlsx" valType="str" updates="None"/>\u000a      <Param name="name" val="conven1" valType="code" updates="None"/>\u000a      <Param name="isTrials" val="True" valType="bool" updates="None"/>\u000a      <Param name="random seed" val="" valType="code" updates="None"/>\u000a      <Param name="loopType" val="random" valType="str" updates="None"/>\u000a      <Param name="nReps" val="1" valType="code" updates="None"/>\u000a      <Param name="endPoints" val="[0, 1]" valType="num" updates="None"/>\u000a      <Param name="conditions" val="[{u'color': u'RED', u'congruent': 1, u'word': u'RED', u'corrans': u'z'}, {u'color': u'RED', u'congruent': 0, u'word': u'GREEN', u'corrans': u'z'}, {u'color': u'BLUE', u'congruent': 1, u'word': u'BLUE', u'corrans': u'z'}, {u'color': u'YELLOW', u'congruent': 1, u'word': u'YELLOW', u'corrans': u'z'}, {u'color': u'GREEN', u'congruent': 1, u'word': u'GREEN', u'corrans': u'n'}, {u'color': u'RED', u'congruent': 1, u'word': u'RED', u'corrans': u'z'}, {u'color': u'GREEN', u'congruent': 1, u'word': u'GREEN', u'corrans': u'n'}, {u'color': u'YELLOW', u'congruent': 1, u'word': u'YELLOW', u'corrans': u'x'}, {u'color': u'RED', u'congruent': 1, u'word': u'RED', u'corrans': u'z'}, {u'color': u'GREEN', u'congruent': 1, u'word': u'GREEN', u'corrans': u'n'}, {u'color': u'YELLOW', u'congruent': 1, u'word': u'YELLOW', u'corrans': u'x'}, {u'color': u'RED', u'congruent': 1, u'word': u'RED', u'corrans': u'z'}, {u'color': u'BLUE', u'congruent': 0, u'word': u'GREEN', u'corrans': u'm'}, {u'color': u'GREEN', u'congruent': 1, u'word': u'GREEN', u'corrans': u'n'}, {u'color': u'BLUE', u'congruent': 1, u'word': u'BLUE', u'corrans': u'm'}, {u'color': u'BLUE', u'congruent': 1, u'word': u'BLUE', u'corrans': u'm'}, {u'color': u'YELLOW', u'congruent': 1, u'word': u'YELLOW', u'corrans': u'x'}, {u'color': u'RED', u'congruent': 1, u'word': u'RED', u'corrans': u'z'}, {u'color': u'RED', u'congruent': 1, u'word': u'RED', u'corrans': u'z'}, {u'color': u'BLUE', u'congruent': 1, u'word': u'BLUE', u'corrans': u'm'}, {u'color': u'BLUE', u'congruent': 1, u'word': u'BLUE', u'corrans': u'm'}, {u'color': u'RED', u'congruent': 1, u'word': u'RED', u'corrans': u'z'}, {u'color': u'GREEN', u'congruent': 1, u'word': u'GREEN', u'corrans': u'n'}, {u'color': u'YELLOW', u'congruent': 0, u'word': u'RED', u'corrans': u'x'}, {u'color': u'RED', u'congruent': 1, u'word': u'RED', u'corrans': u'z'}, {u'color': u'GREEN', u'congruent': 1, u'word': u'GREEN', u'corrans': u'n'}, {u'color': u'BLUE', u'congruent': 1, u'word': u'BLUE', u'corrans': u'm'}, {u'color': u'YELLOW', u'congruent': 1, u'word': u'YELLOW', u'corrans': u'x'}, {u'color': u'GREEN', u'congruent': 1, u'word': u'GREEN', u'corrans': u'n'}, {u'color': u'RED', u'congruent': 1, u'word': u'RED', u'corrans': u'z'}, {u'color': u'YELLOW', u'congruent': 1, u'word': u'YELLOW', u'corrans': u'x'}, {u'color': u'BLUE', u'congruent': 1, u'word': u'BLUE', u'corrans': u'm'}, {u'color': u'BLUE', u'congruent': 1, u'word': u'BLUE', u'corrans': u'm'}, {u'color': u'YELLOW', u'congruent': 1, u'word': u'YELLOW', u'corrans': u'x'}, {u'color': u'GREEN', u'congruent': 0, u'word': u'BLUE', u'corrans': u'n'}, {u'color': u'GREEN', u'congruent': 1, u'word': u'GREEN', u'corrans': u'n'}, {u'color': u'BLUE', u'congruent': 1, u'word': u'BLUE', u'corrans': u'm'}, {u'color': u'BLUE', u'congruent': 1, u'word': u'BLUE', u'corrans': u'm'}, {u'color': u'YELLOW', u'congruent': 1, u'word': u'YELLOW', u'corrans': u'x'}, {u'color': u'GREEN', u'congruent': 1, u'word': u'GREEN', u'corrans': u'n'}]" valType="str" updates="None"/>\u000a      <Param name="Selected rows" val="" valType="str" updates="None"/>\u000a    </LoopInitiator>\u000a    <Routine name="maintask"/>\u000a    <LoopTerminator name="conven1"/>\u000a    <Routine name="rest"/>\u000a    <LoopInitiator loopType="TrialHandler" name="inverse2">\u000a      <Param name="conditionsFile" val="Stroopmain-short-in-10event x 4.xlsx" valType="str" updates="None"/>\u000a      <Param name="name" val="inverse2" valType="code" updates="None"/>\u000a      <Param name="isTrials" val="True" valType="bool" updates="None"/>\u000a      <Param name="random seed" val="" valType="code" updates="None"/>\u000a      <Param name="loopType" val="random" valType="str" updates="None"/>\u000a      <Param name="nReps" val="1" valType="code" updates="None"/>\u000a      <Param name="endPoints" val="[0, 1]" valType="num" updates="None"/>\u000a      <Param name="conditions" val="[{u'color': u'RED', u'congruent': 0, u'word': u'YELLOW', u'corrans': u'z'}, {u'color': u'RED', u'congruent': 1, u'word': u'RED', u'corrans': u'z'}, {u'color': u'BLUE', u'congruent': 0, u'word': u'GREEN', u'corrans': u'z'}, {u'color': u'YELLOW', u'congruent': 0, u'word': u'RED', u'corrans': u'z'}, {u'color': u'GREEN', u'congruent': 0, u'word': u'RED', u'corrans': u'n'}, {u'color': u'RED', u'congruent': 0, u'word': u'BLUE', u'corrans': u'z'}, {u'color': u'GREEN', u'congruent': 0, u'word': u'YELLOW', u'corrans': u'n'}, {u'color': u'YELLOW', u'congruent': 0, u'word': u'BLUE', u'corrans': u'x'}, {u'color': u'GREEN', u'congruent': 0, u'word': u'BLUE', u'corrans': u'n'}, {u'color': u'RED', u'congruent': 0, u'word': u'GREEN', u'corrans': u'z'}, {u'color': u'YELLOW', u'congruent': 0, u'word': u'BLUE', u'corrans': u'x'}, {u'color': u'RED', u'congruent': 0, u'word': u'RED', u'corrans': u'z'}, {u'color': u'BLUE', u'congruent': 1, u'word': u'BLUE', u'corrans': u'm'}, {u'color': u'GREEN', u'congruent': 0, u'word': u'RED', u'corrans': u'n'}, {u'color': u'BLUE', u'congruent': 0, u'word': u'RED', u'corrans': u'm'}, {u'color': u'BLUE', u'congruent': 0, u'word': u'GREEN', u'corrans': u'm'}, {u'color': u'YELLOW', u'congruent': 0, u'word': u'GREEN', u'corrans': u'x'}, {u'color': u'RED', u'congruent': 0, u'word': u'YELLOW', u'corrans': u'z'}, {u'color': u'RED', u'congruent': 0, u'word': u'BLUE', u'corrans': u'z'}, {u'color': u'GREEN', u'congruent': 0, u'word': u'RED', u'corrans': u'm'}, {u'color': u'BLUE', u'congruent': 0, u'word': u'GREEN', u'corrans': u'm'}, {u'color': u'RED', u'congruent': 0, u'word': u'YELLOW', u'corrans': u'z'}, {u'color': u'GREEN', u'congruent': 0, u'word': u'BLUE', u'corrans': u'n'}, {u'color': u'YELLOW', u'congruent': 1, u'word': u'YELLOW', u'corrans': u'x'}, {u'color': u'RED', u'congruent': 0, u'word': u'BLUE', u'corrans': u'z'}, {u'color': u'GREEN', u'congruent': 0, u'word': u'RED', u'corrans': u'n'}, {u'color': u'BLUE', u'congruent': 0, u'word': u'GREEN', u'corrans': u'm'}, {u'color': u'YELLOW', u'congruent': 0, u'word': u'GREEN', u'corrans': u'x'}, {u'color': u'GREEN', u'congruent': 0, u'word': u'YELLOW', u'corrans': u'n'}, {u'color': u'RED', u'congruent': 0, u'word': u'YELLOW', u'corrans': u'z'}, {u'color': u'YELLOW', u'congruent': 0, u'word': u'GREEN', u'corrans': u'x'}, {u'color': u'BLUE', u'congruent': 0, u'word': u'YELLOW', u'corrans': u'm'}, {u'color': u'BLUE', u'congruent': 0, u'word': u'RED', u'corrans': u'm'}, {u'color': u'YELLOW', u'congruent': 0, u'word': u'GREEN', u'corrans': u'x'}, {u'color': u'GREEN', u'congruent': 1, u'word': u'GREEN', u'corrans': u'n'}, {u'color': u'GREEN', u'congruent': 0, u'word': u'RED', u'corrans': u'n'}, {u'color': u'BLUE', u'congruent': 0, u'word': u'GREEN', u'corrans': u'm'}, {u'color': u'BLUE', u'congruent': 0, u'word': u'YELLOW', u'corrans': u'm'}, {u'color': u'YELLOW', u'congruent': 0, u'word': u'GREEN', u'corrans': u'x'}, {u'color': u'RED', u'congruent': 0, u'word': u'BLUE', u'corrans': u'z'}]" valType="str" updates="None"/>\u000a      <Param name="Selected rows" val="" valType="str" updates="None"/>\u000a    </LoopInitiator>\u000a    <Routine name="maintask"/>\u000a    <LoopTerminator name="inverse2"/>\u000a    <Routine name="rest"/>\u000a    <Routine name="ending"/>\u000a  </Flow>\u000a</PsychoPy2experiment>\u000a
p1045
sg816
(lp1046
sg818
I155060432
sg11
S'inverse2'
p1047
sg6
g7
sg820
I1
sg27
I01
sg28
g29
sg821
g1
(g822
g823
(dp1048
g825
g826
(g827
g828
g829
S'b'
tRp1049
(I1
(I40
I1
tg831
I00
S'\x00\x00\x80?\x00\x00\x80?\x00\x00\x80?\x00\x00\x80?\x00\x00\x80?\x00\x00\x80?\x00\x00\x80?\x00\x00\x80?\x00\x00\x80?\x00\x00\x80?\x00\x00\x80?\x00\x00\x80?\x00\x00\x80?\x00\x00\x80?\x00\x00\x80?\x00\x00\x80?\x00\x00\x80?\x00\x00\x80?\x00\x00\x80?\x00\x00\x80?\x00\x00\x80?\x00\x00\x80?\x00\x00\x80?\x00\x00\x80?\x00\x00\x80?\x00\x00\x80?\x00\x00\x80?\x00\x00\x80?\x00\x00\x80?\x00\x00\x80?\x00\x00\x80?\x00\x00\x80?\x00\x00\x80?\x00\x00\x80?\x00\x00\x80?\x00\x00\x80?\x00\x00\x80?\x00\x00\x80?\x00\x00\x80?\x00\x00\x80?'
S'\x00\x00\x00\x00\x00\x00\x00\x00\x00\x00\x00\x00\x00\x00\x00\x00\x00\x00\x00\x00\x00\x00\x00\x00\x00\x00\x00\x00\x00\x00\x00\x00\x00\x00\x00\x00\x00\x00\x00\x00'
Ntbsg24
g826
(g827
g828
g829
S'b'
tRp1050
(I1
(I40
I1
tg831
I00
S'\xf4\x07\x91?\x87\xf1.?\x1apw?\x0b\xd3]?0d&?\x91\xcbL?T,s?\x85r7?\xa4\x1a\x82?\x14\xb6;?\x9e\xa5*?Ut\xf7>\xc5o\x97?\x8b\x1db?\x17"s? \xe1\xdd>DAD?\xe3\x1f3?kAD?\xd1\x82\x08?@\x16\x11?\xb3\xcf\x0c?O\x92\x08?\xb4\xa7*?A\x86H?\'\xa3\x8a?\xc6\xf2\xee>\xee43?\xb8\x88\x08?\\\x1b"?\xe2\x1e\x82?\xfd\x99Y?t\x9b\x19?\xa0\x91j?\xcd\x95Y?\x0e\xc8\x8c?\xa2\xee??i$"?\xfeu7?C\xa9*?'
S'\x00\x00\x00\x00\x00\x00\x00\x00\x00\x00\x00\x00\x00\x00\x00\x00\x00\x00\x00\x00\x00\x00\x00\x00\x00\x00\x00\x00\x00\x00\x00\x00\x00\x00\x00\x00\x00\x00\x00\x00'
Ntbsg22
g826
(g827
g828
g829
S'b'
tRp1051
(I1
(I40
I1
tg834
I00
S'PS\xd1\r(W\xd1\r\x88Z\xd1\r\xe0S\xd1\r\x90[\xd1\r0[\xd1\r8P\xd1\rH[\xd1\r\xf0U\xd1\r(T\xd1\r\x00U\xd1\rpZ\xd1\r@W\xd1\r`[\xd1\r\xb0V\xd1\r\xb0S\xd1\rpW\xd1\r@T\xd1\r V\xd1\r\x08V\xd1\r\xb0Y\xd1\r\xc0[\xd1\rhS\xd1\r\xa0T\xd1\r Y\xd1\r\x90R\xd1\r\xf8Y\xd1\rxR\xd1\r`U\xd1\r\xb8T\xd1\r\x08S\xd1\r\x88T\xd1\rXZ\xd1\rxX\xd1\r\x80Y\xd1\r\xd8U\xd1\r\x90X\xd1\rXW\xd1\r\x18X\xd1\r\xf0R\xd1\r'
S'\x00\x00\x00\x00\x00\x00\x00\x00\x00\x00\x00\x00\x00\x00\x00\x00\x00\x00\x00\x00\x00\x00\x00\x00\x00\x00\x00\x00\x00\x00\x00\x00\x00\x00\x00\x00\x00\x00\x00\x00'
Ntbsg835
g826
(g827
g828
g829
S'b'
tRp1052
(I1
(I40
I1
tg831
I00
S'\x00\x00\x1cB\x00\x00\xc8A\x00\x00\x88A\x00\x00\xb0A\x00\x00pA\x00\x00\xf8A\x00\x00\xa8A\x00\x00\x80@\x00\x00\x0cB\x00\x00\x98A\x00\x00PA\x00\x00\xe0@\x00\x000A\x00\x00\xe0A\x00\x00\xa0@\x00\x00\x10A\x00\x00 A\x00\x00\x14B\x00\x00@@\x00\x00\x80?\x00\x00@A\x00\x00\xd8A\x00\x00\x08B\x00\x00\xb8A\x00\x00\xc0@\x00\x00\x04B\x00\x00\xf0A\x00\x00\x10B\x00\x00\x80A\x00\x00\xd0A\x00\x00\x90A\x00\x00\x00A\x00\x00\x00@\x00\x00\xa0A\x00\x00`A\x00\x00\x00\x00\x00\x00\x00B\x00\x00\xe8A\x00\x00\x18B\x00\x00\xc0A'
S'\x00\x00\x00\x00\x00\x00\x00\x00\x00\x00\x00\x00\x00\x00\x00\x00\x00\x00\x00\x00\x00\x00\x00\x00\x00\x00\x00\x00\x00\x00\x00\x00\x00\x00\x00\x00\x00\x00\x00\x00'
Ntbsg23
g826
(g827
g828
g829
S'b'
tRp1053
(I1
(I40
I1
tg831
I00
S'\x00\x00\x80?\x00\x00\x80?\x00\x00\x00\x00\x00\x00\x00\x00\x00\x00\x80?\x00\x00\x80?\x00\x00\x80?\x00\x00\x80?\x00\x00\x80?\x00\x00\x80?\x00\x00\x80?\x00\x00\x80?\x00\x00\x80?\x00\x00\x80?\x00\x00\x80?\x00\x00\x80?\x00\x00\x80?\x00\x00\x80?\x00\x00\x80?\x00\x00\x00\x00\x00\x00\x80?\x00\x00\x80?\x00\x00\x80?\x00\x00\x80?\x00\x00\x80?\x00\x00\x80?\x00\x00\x80?\x00\x00\x80?\x00\x00\x80?\x00\x00\x80?\x00\x00\x80?\x00\x00\x80?\x00\x00\x80?\x00\x00\x80?\x00\x00\x80?\x00\x00\x80?\x00\x00\x80?\x00\x00\x80?\x00\x00\x80?\x00\x00\x80?'
S'\x00\x00\x00\x00\x00\x00\x00\x00\x00\x00\x00\x00\x00\x00\x00\x00\x00\x00\x00\x00\x00\x00\x00\x00\x00\x00\x00\x00\x00\x00\x00\x00\x00\x00\x00\x00\x00\x00\x00\x00'
NtbstRp1054
(dp1055
g840
(dp1056
g825
I01
sg24
I01
sg23
I01
sg835
I01
sg22
I00
ssg842
g1043
sg843
(lp1057
g825
ag835
ag22
ag23
ag24
asg845
(lp1058
I40
aI1
asbsg847
g960
sg849
g850
(g828
(I0
tS'b'
tRp1059
(I1
(I40
I1
tg67
I01
S'#\x00\x00\x00\x13\x00\x00\x00 \x00\x00\x00\x12\x00\x00\x00\x07\x00\x00\x00\x0e\x00\x00\x00\x18\x00\x00\x00\x0b\x00\x00\x00\x1f\x00\x00\x00\x0f\x00\x00\x00\x10\x00\x00\x00\x0c\x00\x00\x00\x14\x00\x00\x00\n\x00\x00\x00"\x00\x00\x00\x04\x00\x00\x00\x1c\x00\x00\x00\x02\x00\x00\x00\x1e\x00\x00\x00\t\x00\x00\x00!\x00\x00\x00\x06\x00\x00\x00\x03\x00\x00\x00\x17\x00\x00\x00\'\x00\x00\x00\x01\x00\x00\x00\x1d\x00\x00\x00\x15\x00\x00\x00\r\x00\x00\x00%\x00\x00\x00\x1a\x00\x00\x00\x05\x00\x00\x00$\x00\x00\x00\x19\x00\x00\x00\x16\x00\x00\x00\x08\x00\x00\x00\x1b\x00\x00\x00\x11\x00\x00\x00&\x00\x00\x00\x00\x00\x00\x00'
tbsg852
I01
sg853
I1
sg854
I-1
sg855
(lp1060
g1
(g857
g823
(dp1061
g565
g560
sg567
I0
sg559
g594
sg568
Vz
stRp1062
ag1
(g857
g823
(dp1063
g565
g560
sg567
I1
sg559
g560
sg568
Vz
stRp1064
ag1
(g857
g823
(dp1065
g565
g581
sg567
I0
sg559
g566
sg568
Vz
stRp1066
ag1
(g857
g823
(dp1067
g565
g594
sg567
I0
sg559
g560
sg568
Vz
stRp1068
ag1
(g857
g823
(dp1069
g565
g566
sg567
I0
sg559
g560
sg568
Vn
stRp1070
ag1
(g857
g823
(dp1071
g565
g560
sg567
I0
sg559
g581
sg568
Vz
stRp1072
ag1
(g857
g823
(dp1073
g565
g566
sg567
I0
sg559
g594
sg568
Vn
stRp1074
ag1
(g857
g823
(dp1075
g565
g594
sg567
I0
sg559
g581
sg568
Vx
stRp1076
ag1
(g857
g823
(dp1077
g565
g566
sg567
I0
sg559
g581
sg568
Vn
stRp1078
ag1
(g857
g823
(dp1079
g565
g560
sg567
I0
sg559
g566
sg568
Vz
stRp1080
ag1
(g857
g823
(dp1081
g565
g594
sg567
I0
sg559
g581
sg568
Vx
stRp1082
ag1
(g857
g823
(dp1083
g565
g560
sg567
I0
sg559
g560
sg568
Vz
stRp1084
ag1
(g857
g823
(dp1085
g565
g581
sg567
I1
sg559
g581
sg568
Vm
stRp1086
ag1
(g857
g823
(dp1087
g565
g566
sg567
I0
sg559
g560
sg568
Vn
stRp1088
ag1
(g857
g823
(dp1089
g565
g581
sg567
I0
sg559
g560
sg568
Vm
stRp1090
ag1
(g857
g823
(dp1091
g565
g581
sg567
I0
sg559
g566
sg568
Vm
stRp1092
ag1
(g857
g823
(dp1093
g565
g594
sg567
I0
sg559
g566
sg568
Vx
stRp1094
ag1
(g857
g823
(dp1095
g565
g560
sg567
I0
sg559
g594
sg568
Vz
stRp1096
ag1
(g857
g823
(dp1097
g565
g560
sg567
I0
sg559
g581
sg568
Vz
stRp1098
ag1
(g857
g823
(dp1099
g565
g566
sg567
I0
sg559
g560
sg568
Vm
stRp1100
ag1
(g857
g823
(dp1101
g565
g581
sg567
I0
sg559
g566
sg568
Vm
stRp1102
ag1
(g857
g823
(dp1103
g565
g560
sg567
I0
sg559
g594
sg568
Vz
stRp1104
ag1
(g857
g823
(dp1105
g565
g566
sg567
I0
sg559
g581
sg568
Vn
stRp1106
ag1
(g857
g823
(dp1107
g565
g594
sg567
I1
sg559
g594
sg568
Vx
stRp1108
ag1
(g857
g823
(dp1109
g565
g560
sg567
I0
sg559
g581
sg568
Vz
stRp1110
ag1
(g857
g823
(dp1111
g565
g566
sg567
I0
sg559
g560
sg568
Vn
stRp1112
ag1
(g857
g823
(dp1113
g565
g581
sg567
I0
sg559
g566
sg568
Vm
stRp1114
ag1
(g857
g823
(dp1115
g565
g594
sg567
I0
sg559
g566
sg568
Vx
stRp1116
ag1
(g857
g823
(dp1117
g565
g566
sg567
I0
sg559
g594
sg568
Vn
stRp1118
ag1
(g857
g823
(dp1119
g565
g560
sg567
I0
sg559
g594
sg568
Vz
stRp1120
ag1
(g857
g823
(dp1121
g565
g594
sg567
I0
sg559
g566
sg568
Vx
stRp1122
ag1
(g857
g823
(dp1123
g565
g581
sg567
I0
sg559
g594
sg568
Vm
stRp1124
ag1
(g857
g823
(dp1125
g565
g581
sg567
I0
sg559
g560
sg568
Vm
stRp1126
ag1
(g857
g823
(dp1127
g565
g594
sg567
I0
sg559
g566
sg568
Vx
stRp1128
ag1
(g857
g823
(dp1129
g565
g566
sg567
I1
sg559
g566
sg568
Vn
stRp1130
ag1
(g857
g823
(dp1131
g565
g566
sg567
I0
sg559
g560
sg568
Vn
stRp1132
ag1
(g857
g823
(dp1133
g565
g581
sg567
I0
sg559
g566
sg568
Vm
stRp1134
ag1
(g857
g823
(dp1135
g565
g581
sg567
I0
sg559
g594
sg568
Vm
stRp1136
ag1
(g857
g823
(dp1137
g565
g594
sg567
I0
sg559
g566
sg568
Vx
stRp1138
ag1
(g857
g823
(dp1139
g565
g560
sg567
I0
sg559
g581
sg568
Vz
stRp1140
asg938
Nsg939
g804
sg940
I40
sg941
I0
sg942
I40
sg943
I01
sbasS'savePickle'
p1141
I00
sb.